
Program_01_c.out:     file format elf64-x86-64


Disassembly of section .init:

0000000000001000 <_init>:
    1000:	f3 0f 1e fa          	endbr64
    1004:	48 83 ec 08          	sub    $0x8,%rsp
    1008:	48 8b 05 d9 5f 00 00 	mov    0x5fd9(%rip),%rax        # 6fe8 <__gmon_start__@Base>
    100f:	48 85 c0             	test   %rax,%rax
    1012:	74 02                	je     1016 <_init+0x16>
    1014:	ff d0                	call   *%rax
    1016:	48 83 c4 08          	add    $0x8,%rsp
    101a:	c3                   	ret

Disassembly of section .plt:

0000000000001020 <.plt>:
    1020:	ff 35 f2 5e 00 00    	push   0x5ef2(%rip)        # 6f18 <_GLOBAL_OFFSET_TABLE_+0x8>
    1026:	ff 25 f4 5e 00 00    	jmp    *0x5ef4(%rip)        # 6f20 <_GLOBAL_OFFSET_TABLE_+0x10>
    102c:	0f 1f 40 00          	nopl   0x0(%rax)
    1030:	f3 0f 1e fa          	endbr64
    1034:	68 00 00 00 00       	push   $0x0
    1039:	e9 e2 ff ff ff       	jmp    1020 <_init+0x20>
    103e:	66 90                	xchg   %ax,%ax
    1040:	f3 0f 1e fa          	endbr64
    1044:	68 01 00 00 00       	push   $0x1
    1049:	e9 d2 ff ff ff       	jmp    1020 <_init+0x20>
    104e:	66 90                	xchg   %ax,%ax
    1050:	f3 0f 1e fa          	endbr64
    1054:	68 02 00 00 00       	push   $0x2
    1059:	e9 c2 ff ff ff       	jmp    1020 <_init+0x20>
    105e:	66 90                	xchg   %ax,%ax
    1060:	f3 0f 1e fa          	endbr64
    1064:	68 03 00 00 00       	push   $0x3
    1069:	e9 b2 ff ff ff       	jmp    1020 <_init+0x20>
    106e:	66 90                	xchg   %ax,%ax
    1070:	f3 0f 1e fa          	endbr64
    1074:	68 04 00 00 00       	push   $0x4
    1079:	e9 a2 ff ff ff       	jmp    1020 <_init+0x20>
    107e:	66 90                	xchg   %ax,%ax
    1080:	f3 0f 1e fa          	endbr64
    1084:	68 05 00 00 00       	push   $0x5
    1089:	e9 92 ff ff ff       	jmp    1020 <_init+0x20>
    108e:	66 90                	xchg   %ax,%ax
    1090:	f3 0f 1e fa          	endbr64
    1094:	68 06 00 00 00       	push   $0x6
    1099:	e9 82 ff ff ff       	jmp    1020 <_init+0x20>
    109e:	66 90                	xchg   %ax,%ax
    10a0:	f3 0f 1e fa          	endbr64
    10a4:	68 07 00 00 00       	push   $0x7
    10a9:	e9 72 ff ff ff       	jmp    1020 <_init+0x20>
    10ae:	66 90                	xchg   %ax,%ax
    10b0:	f3 0f 1e fa          	endbr64
    10b4:	68 08 00 00 00       	push   $0x8
    10b9:	e9 62 ff ff ff       	jmp    1020 <_init+0x20>
    10be:	66 90                	xchg   %ax,%ax
    10c0:	f3 0f 1e fa          	endbr64
    10c4:	68 09 00 00 00       	push   $0x9
    10c9:	e9 52 ff ff ff       	jmp    1020 <_init+0x20>
    10ce:	66 90                	xchg   %ax,%ax
    10d0:	f3 0f 1e fa          	endbr64
    10d4:	68 0a 00 00 00       	push   $0xa
    10d9:	e9 42 ff ff ff       	jmp    1020 <_init+0x20>
    10de:	66 90                	xchg   %ax,%ax
    10e0:	f3 0f 1e fa          	endbr64
    10e4:	68 0b 00 00 00       	push   $0xb
    10e9:	e9 32 ff ff ff       	jmp    1020 <_init+0x20>
    10ee:	66 90                	xchg   %ax,%ax
    10f0:	f3 0f 1e fa          	endbr64
    10f4:	68 0c 00 00 00       	push   $0xc
    10f9:	e9 22 ff ff ff       	jmp    1020 <_init+0x20>
    10fe:	66 90                	xchg   %ax,%ax
    1100:	f3 0f 1e fa          	endbr64
    1104:	68 0d 00 00 00       	push   $0xd
    1109:	e9 12 ff ff ff       	jmp    1020 <_init+0x20>
    110e:	66 90                	xchg   %ax,%ax
    1110:	f3 0f 1e fa          	endbr64
    1114:	68 0e 00 00 00       	push   $0xe
    1119:	e9 02 ff ff ff       	jmp    1020 <_init+0x20>
    111e:	66 90                	xchg   %ax,%ax
    1120:	f3 0f 1e fa          	endbr64
    1124:	68 0f 00 00 00       	push   $0xf
    1129:	e9 f2 fe ff ff       	jmp    1020 <_init+0x20>
    112e:	66 90                	xchg   %ax,%ax
    1130:	f3 0f 1e fa          	endbr64
    1134:	68 10 00 00 00       	push   $0x10
    1139:	e9 e2 fe ff ff       	jmp    1020 <_init+0x20>
    113e:	66 90                	xchg   %ax,%ax
    1140:	f3 0f 1e fa          	endbr64
    1144:	68 11 00 00 00       	push   $0x11
    1149:	e9 d2 fe ff ff       	jmp    1020 <_init+0x20>
    114e:	66 90                	xchg   %ax,%ax
    1150:	f3 0f 1e fa          	endbr64
    1154:	68 12 00 00 00       	push   $0x12
    1159:	e9 c2 fe ff ff       	jmp    1020 <_init+0x20>
    115e:	66 90                	xchg   %ax,%ax
    1160:	f3 0f 1e fa          	endbr64
    1164:	68 13 00 00 00       	push   $0x13
    1169:	e9 b2 fe ff ff       	jmp    1020 <_init+0x20>
    116e:	66 90                	xchg   %ax,%ax
    1170:	f3 0f 1e fa          	endbr64
    1174:	68 14 00 00 00       	push   $0x14
    1179:	e9 a2 fe ff ff       	jmp    1020 <_init+0x20>
    117e:	66 90                	xchg   %ax,%ax
    1180:	f3 0f 1e fa          	endbr64
    1184:	68 15 00 00 00       	push   $0x15
    1189:	e9 92 fe ff ff       	jmp    1020 <_init+0x20>
    118e:	66 90                	xchg   %ax,%ax

Disassembly of section .plt.got:

0000000000001190 <__cxa_finalize@plt>:
    1190:	f3 0f 1e fa          	endbr64
    1194:	ff 25 5e 5e 00 00    	jmp    *0x5e5e(%rip)        # 6ff8 <__cxa_finalize@GLIBC_2.2.5>
    119a:	66 0f 1f 44 00 00    	nopw   0x0(%rax,%rax,1)

Disassembly of section .plt.sec:

00000000000011a0 <free@plt>:
    11a0:	f3 0f 1e fa          	endbr64
    11a4:	ff 25 7e 5d 00 00    	jmp    *0x5d7e(%rip)        # 6f28 <free@GLIBC_2.2.5>
    11aa:	66 0f 1f 44 00 00    	nopw   0x0(%rax,%rax,1)

00000000000011b0 <putchar@plt>:
    11b0:	f3 0f 1e fa          	endbr64
    11b4:	ff 25 76 5d 00 00    	jmp    *0x5d76(%rip)        # 6f30 <putchar@GLIBC_2.2.5>
    11ba:	66 0f 1f 44 00 00    	nopw   0x0(%rax,%rax,1)

00000000000011c0 <strcpy@plt>:
    11c0:	f3 0f 1e fa          	endbr64
    11c4:	ff 25 6e 5d 00 00    	jmp    *0x5d6e(%rip)        # 6f38 <strcpy@GLIBC_2.2.5>
    11ca:	66 0f 1f 44 00 00    	nopw   0x0(%rax,%rax,1)

00000000000011d0 <puts@plt>:
    11d0:	f3 0f 1e fa          	endbr64
    11d4:	ff 25 66 5d 00 00    	jmp    *0x5d66(%rip)        # 6f40 <puts@GLIBC_2.2.5>
    11da:	66 0f 1f 44 00 00    	nopw   0x0(%rax,%rax,1)

00000000000011e0 <fread@plt>:
    11e0:	f3 0f 1e fa          	endbr64
    11e4:	ff 25 5e 5d 00 00    	jmp    *0x5d5e(%rip)        # 6f48 <fread@GLIBC_2.2.5>
    11ea:	66 0f 1f 44 00 00    	nopw   0x0(%rax,%rax,1)

00000000000011f0 <fclose@plt>:
    11f0:	f3 0f 1e fa          	endbr64
    11f4:	ff 25 56 5d 00 00    	jmp    *0x5d56(%rip)        # 6f50 <fclose@GLIBC_2.2.5>
    11fa:	66 0f 1f 44 00 00    	nopw   0x0(%rax,%rax,1)

0000000000001200 <strlen@plt>:
    1200:	f3 0f 1e fa          	endbr64
    1204:	ff 25 4e 5d 00 00    	jmp    *0x5d4e(%rip)        # 6f58 <strlen@GLIBC_2.2.5>
    120a:	66 0f 1f 44 00 00    	nopw   0x0(%rax,%rax,1)

0000000000001210 <__stack_chk_fail@plt>:
    1210:	f3 0f 1e fa          	endbr64
    1214:	ff 25 46 5d 00 00    	jmp    *0x5d46(%rip)        # 6f60 <__stack_chk_fail@GLIBC_2.4>
    121a:	66 0f 1f 44 00 00    	nopw   0x0(%rax,%rax,1)

0000000000001220 <printf@plt>:
    1220:	f3 0f 1e fa          	endbr64
    1224:	ff 25 3e 5d 00 00    	jmp    *0x5d3e(%rip)        # 6f68 <printf@GLIBC_2.2.5>
    122a:	66 0f 1f 44 00 00    	nopw   0x0(%rax,%rax,1)

0000000000001230 <rewind@plt>:
    1230:	f3 0f 1e fa          	endbr64
    1234:	ff 25 36 5d 00 00    	jmp    *0x5d36(%rip)        # 6f70 <rewind@GLIBC_2.2.5>
    123a:	66 0f 1f 44 00 00    	nopw   0x0(%rax,%rax,1)

0000000000001240 <memset@plt>:
    1240:	f3 0f 1e fa          	endbr64
    1244:	ff 25 2e 5d 00 00    	jmp    *0x5d2e(%rip)        # 6f78 <memset@GLIBC_2.2.5>
    124a:	66 0f 1f 44 00 00    	nopw   0x0(%rax,%rax,1)

0000000000001250 <strcspn@plt>:
    1250:	f3 0f 1e fa          	endbr64
    1254:	ff 25 26 5d 00 00    	jmp    *0x5d26(%rip)        # 6f80 <strcspn@GLIBC_2.2.5>
    125a:	66 0f 1f 44 00 00    	nopw   0x0(%rax,%rax,1)

0000000000001260 <memcmp@plt>:
    1260:	f3 0f 1e fa          	endbr64
    1264:	ff 25 1e 5d 00 00    	jmp    *0x5d1e(%rip)        # 6f88 <memcmp@GLIBC_2.2.5>
    126a:	66 0f 1f 44 00 00    	nopw   0x0(%rax,%rax,1)

0000000000001270 <fgets@plt>:
    1270:	f3 0f 1e fa          	endbr64
    1274:	ff 25 16 5d 00 00    	jmp    *0x5d16(%rip)        # 6f90 <fgets@GLIBC_2.2.5>
    127a:	66 0f 1f 44 00 00    	nopw   0x0(%rax,%rax,1)

0000000000001280 <strcmp@plt>:
    1280:	f3 0f 1e fa          	endbr64
    1284:	ff 25 0e 5d 00 00    	jmp    *0x5d0e(%rip)        # 6f98 <strcmp@GLIBC_2.2.5>
    128a:	66 0f 1f 44 00 00    	nopw   0x0(%rax,%rax,1)

0000000000001290 <ftell@plt>:
    1290:	f3 0f 1e fa          	endbr64
    1294:	ff 25 06 5d 00 00    	jmp    *0x5d06(%rip)        # 6fa0 <ftell@GLIBC_2.2.5>
    129a:	66 0f 1f 44 00 00    	nopw   0x0(%rax,%rax,1)

00000000000012a0 <memcpy@plt>:
    12a0:	f3 0f 1e fa          	endbr64
    12a4:	ff 25 fe 5c 00 00    	jmp    *0x5cfe(%rip)        # 6fa8 <memcpy@GLIBC_2.14>
    12aa:	66 0f 1f 44 00 00    	nopw   0x0(%rax,%rax,1)

00000000000012b0 <malloc@plt>:
    12b0:	f3 0f 1e fa          	endbr64
    12b4:	ff 25 f6 5c 00 00    	jmp    *0x5cf6(%rip)        # 6fb0 <malloc@GLIBC_2.2.5>
    12ba:	66 0f 1f 44 00 00    	nopw   0x0(%rax,%rax,1)

00000000000012c0 <fseek@plt>:
    12c0:	f3 0f 1e fa          	endbr64
    12c4:	ff 25 ee 5c 00 00    	jmp    *0x5cee(%rip)        # 6fb8 <fseek@GLIBC_2.2.5>
    12ca:	66 0f 1f 44 00 00    	nopw   0x0(%rax,%rax,1)

00000000000012d0 <fopen@plt>:
    12d0:	f3 0f 1e fa          	endbr64
    12d4:	ff 25 e6 5c 00 00    	jmp    *0x5ce6(%rip)        # 6fc0 <fopen@GLIBC_2.2.5>
    12da:	66 0f 1f 44 00 00    	nopw   0x0(%rax,%rax,1)

00000000000012e0 <perror@plt>:
    12e0:	f3 0f 1e fa          	endbr64
    12e4:	ff 25 de 5c 00 00    	jmp    *0x5cde(%rip)        # 6fc8 <perror@GLIBC_2.2.5>
    12ea:	66 0f 1f 44 00 00    	nopw   0x0(%rax,%rax,1)

00000000000012f0 <exit@plt>:
    12f0:	f3 0f 1e fa          	endbr64
    12f4:	ff 25 d6 5c 00 00    	jmp    *0x5cd6(%rip)        # 6fd0 <exit@GLIBC_2.2.5>
    12fa:	66 0f 1f 44 00 00    	nopw   0x0(%rax,%rax,1)

Disassembly of section .text:

0000000000001300 <_start>:
    1300:	f3 0f 1e fa          	endbr64
    1304:	31 ed                	xor    %ebp,%ebp
    1306:	49 89 d1             	mov    %rdx,%r9
    1309:	5e                   	pop    %rsi
    130a:	48 89 e2             	mov    %rsp,%rdx
    130d:	48 83 e4 f0          	and    $0xfffffffffffffff0,%rsp
    1311:	50                   	push   %rax
    1312:	54                   	push   %rsp
    1313:	45 31 c0             	xor    %r8d,%r8d
    1316:	31 c9                	xor    %ecx,%ecx
    1318:	48 8d 3d 70 0c 00 00 	lea    0xc70(%rip),%rdi        # 1f8f <main>
    131f:	ff 15 b3 5c 00 00    	call   *0x5cb3(%rip)        # 6fd8 <__libc_start_main@GLIBC_2.34>
    1325:	f4                   	hlt
    1326:	66 2e 0f 1f 84 00 00 	cs nopw 0x0(%rax,%rax,1)
    132d:	00 00 00 

0000000000001330 <deregister_tm_clones>:
    1330:	48 8d 3d 19 5d 00 00 	lea    0x5d19(%rip),%rdi        # 7050 <__TMC_END__>
    1337:	48 8d 05 12 5d 00 00 	lea    0x5d12(%rip),%rax        # 7050 <__TMC_END__>
    133e:	48 39 f8             	cmp    %rdi,%rax
    1341:	74 15                	je     1358 <deregister_tm_clones+0x28>
    1343:	48 8b 05 96 5c 00 00 	mov    0x5c96(%rip),%rax        # 6fe0 <_ITM_deregisterTMCloneTable@Base>
    134a:	48 85 c0             	test   %rax,%rax
    134d:	74 09                	je     1358 <deregister_tm_clones+0x28>
    134f:	ff e0                	jmp    *%rax
    1351:	0f 1f 80 00 00 00 00 	nopl   0x0(%rax)
    1358:	c3                   	ret
    1359:	0f 1f 80 00 00 00 00 	nopl   0x0(%rax)

0000000000001360 <register_tm_clones>:
    1360:	48 8d 3d e9 5c 00 00 	lea    0x5ce9(%rip),%rdi        # 7050 <__TMC_END__>
    1367:	48 8d 35 e2 5c 00 00 	lea    0x5ce2(%rip),%rsi        # 7050 <__TMC_END__>
    136e:	48 29 fe             	sub    %rdi,%rsi
    1371:	48 89 f0             	mov    %rsi,%rax
    1374:	48 c1 ee 3f          	shr    $0x3f,%rsi
    1378:	48 c1 f8 03          	sar    $0x3,%rax
    137c:	48 01 c6             	add    %rax,%rsi
    137f:	48 d1 fe             	sar    $1,%rsi
    1382:	74 14                	je     1398 <register_tm_clones+0x38>
    1384:	48 8b 05 65 5c 00 00 	mov    0x5c65(%rip),%rax        # 6ff0 <_ITM_registerTMCloneTable@Base>
    138b:	48 85 c0             	test   %rax,%rax
    138e:	74 08                	je     1398 <register_tm_clones+0x38>
    1390:	ff e0                	jmp    *%rax
    1392:	66 0f 1f 44 00 00    	nopw   0x0(%rax,%rax,1)
    1398:	c3                   	ret
    1399:	0f 1f 80 00 00 00 00 	nopl   0x0(%rax)

00000000000013a0 <__do_global_dtors_aux>:
    13a0:	f3 0f 1e fa          	endbr64
    13a4:	80 3d bd 5c 00 00 00 	cmpb   $0x0,0x5cbd(%rip)        # 7068 <completed.0>
    13ab:	75 2b                	jne    13d8 <__do_global_dtors_aux+0x38>
    13ad:	55                   	push   %rbp
    13ae:	48 83 3d 42 5c 00 00 	cmpq   $0x0,0x5c42(%rip)        # 6ff8 <__cxa_finalize@GLIBC_2.2.5>
    13b5:	00 
    13b6:	48 89 e5             	mov    %rsp,%rbp
    13b9:	74 0c                	je     13c7 <__do_global_dtors_aux+0x27>
    13bb:	48 8b 3d 46 5c 00 00 	mov    0x5c46(%rip),%rdi        # 7008 <__dso_handle>
    13c2:	e8 c9 fd ff ff       	call   1190 <__cxa_finalize@plt>
    13c7:	e8 64 ff ff ff       	call   1330 <deregister_tm_clones>
    13cc:	c6 05 95 5c 00 00 01 	movb   $0x1,0x5c95(%rip)        # 7068 <completed.0>
    13d3:	5d                   	pop    %rbp
    13d4:	c3                   	ret
    13d5:	0f 1f 00             	nopl   (%rax)
    13d8:	c3                   	ret
    13d9:	0f 1f 80 00 00 00 00 	nopl   0x0(%rax)

00000000000013e0 <frame_dummy>:
    13e0:	f3 0f 1e fa          	endbr64
    13e4:	e9 77 ff ff ff       	jmp    1360 <register_tm_clones>

00000000000013e9 <isEmpty>:
    13e9:	f3 0f 1e fa          	endbr64
    13ed:	55                   	push   %rbp
    13ee:	48 89 e5             	mov    %rsp,%rbp
    13f1:	8b 05 49 5c 00 00    	mov    0x5c49(%rip),%eax        # 7040 <front>
    13f7:	83 f8 ff             	cmp    $0xffffffff,%eax
    13fa:	75 12                	jne    140e <isEmpty+0x25>
    13fc:	8b 05 42 5c 00 00    	mov    0x5c42(%rip),%eax        # 7044 <rear>
    1402:	83 f8 ff             	cmp    $0xffffffff,%eax
    1405:	75 07                	jne    140e <isEmpty+0x25>
    1407:	b8 01 00 00 00       	mov    $0x1,%eax
    140c:	eb 05                	jmp    1413 <isEmpty+0x2a>
    140e:	b8 00 00 00 00       	mov    $0x0,%eax
    1413:	5d                   	pop    %rbp
    1414:	c3                   	ret

0000000000001415 <isFull>:
    1415:	f3 0f 1e fa          	endbr64
    1419:	55                   	push   %rbp
    141a:	48 89 e5             	mov    %rsp,%rbp
    141d:	8b 05 21 5c 00 00    	mov    0x5c21(%rip),%eax        # 7044 <rear>
    1423:	8d 50 01             	lea    0x1(%rax),%edx
    1426:	89 d0                	mov    %edx,%eax
    1428:	c1 f8 1f             	sar    $0x1f,%eax
    142b:	c1 e8 1f             	shr    $0x1f,%eax
    142e:	01 c2                	add    %eax,%edx
    1430:	83 e2 01             	and    $0x1,%edx
    1433:	29 c2                	sub    %eax,%edx
    1435:	89 d0                	mov    %edx,%eax
    1437:	8d 14 85 00 00 00 00 	lea    0x0(,%rax,4),%edx
    143e:	8b 05 fc 5b 00 00    	mov    0x5bfc(%rip),%eax        # 7040 <front>
    1444:	39 c2                	cmp    %eax,%edx
    1446:	0f 94 c0             	sete   %al
    1449:	0f b6 c0             	movzbl %al,%eax
    144c:	5d                   	pop    %rbp
    144d:	c3                   	ret

000000000000144e <enqueue>:
    144e:	f3 0f 1e fa          	endbr64
    1452:	55                   	push   %rbp
    1453:	48 89 e5             	mov    %rsp,%rbp
    1456:	48 83 ec 20          	sub    $0x20,%rsp
    145a:	48 89 7d e8          	mov    %rdi,-0x18(%rbp)
    145e:	e8 b2 ff ff ff       	call   1415 <isFull>
    1463:	66 85 c0             	test   %ax,%ax
    1466:	74 20                	je     1488 <enqueue+0x3a>
    1468:	48 8b 45 e8          	mov    -0x18(%rbp),%rax
    146c:	48 89 c6             	mov    %rax,%rsi
    146f:	48 8d 05 92 3b 00 00 	lea    0x3b92(%rip),%rax        # 5008 <_IO_stdin_used+0x8>
    1476:	48 89 c7             	mov    %rax,%rdi
    1479:	b8 00 00 00 00       	mov    $0x0,%eax
    147e:	e8 9d fd ff ff       	call   1220 <printf@plt>
    1483:	e9 9f 00 00 00       	jmp    1527 <enqueue+0xd9>
    1488:	48 8b 45 e8          	mov    -0x18(%rbp),%rax
    148c:	48 89 c7             	mov    %rax,%rdi
    148f:	e8 6c fd ff ff       	call   1200 <strlen@plt>
    1494:	48 83 c0 01          	add    $0x1,%rax
    1498:	48 89 c7             	mov    %rax,%rdi
    149b:	e8 10 fe ff ff       	call   12b0 <malloc@plt>
    14a0:	48 89 45 f8          	mov    %rax,-0x8(%rbp)
    14a4:	48 8b 55 e8          	mov    -0x18(%rbp),%rdx
    14a8:	48 8b 45 f8          	mov    -0x8(%rbp),%rax
    14ac:	48 89 d6             	mov    %rdx,%rsi
    14af:	48 89 c7             	mov    %rax,%rdi
    14b2:	e8 09 fd ff ff       	call   11c0 <strcpy@plt>
    14b7:	8b 05 83 5b 00 00    	mov    0x5b83(%rip),%eax        # 7040 <front>
    14bd:	83 f8 ff             	cmp    $0xffffffff,%eax
    14c0:	75 23                	jne    14e5 <enqueue+0x97>
    14c2:	8b 05 7c 5b 00 00    	mov    0x5b7c(%rip),%eax        # 7044 <rear>
    14c8:	83 f8 ff             	cmp    $0xffffffff,%eax
    14cb:	75 18                	jne    14e5 <enqueue+0x97>
    14cd:	c7 05 6d 5b 00 00 00 	movl   $0x0,0x5b6d(%rip)        # 7044 <rear>
    14d4:	00 00 00 
    14d7:	8b 05 67 5b 00 00    	mov    0x5b67(%rip),%eax        # 7044 <rear>
    14dd:	89 05 5d 5b 00 00    	mov    %eax,0x5b5d(%rip)        # 7040 <front>
    14e3:	eb 23                	jmp    1508 <enqueue+0xba>
    14e5:	8b 05 59 5b 00 00    	mov    0x5b59(%rip),%eax        # 7044 <rear>
    14eb:	8d 50 01             	lea    0x1(%rax),%edx
    14ee:	89 d0                	mov    %edx,%eax
    14f0:	c1 f8 1f             	sar    $0x1f,%eax
    14f3:	c1 e8 1f             	shr    $0x1f,%eax
    14f6:	01 c2                	add    %eax,%edx
    14f8:	83 e2 01             	and    $0x1,%edx
    14fb:	29 c2                	sub    %eax,%edx
    14fd:	89 d0                	mov    %edx,%eax
    14ff:	c1 e0 02             	shl    $0x2,%eax
    1502:	89 05 3c 5b 00 00    	mov    %eax,0x5b3c(%rip)        # 7044 <rear>
    1508:	8b 05 36 5b 00 00    	mov    0x5b36(%rip),%eax        # 7044 <rear>
    150e:	48 98                	cltq
    1510:	48 8d 0c c5 00 00 00 	lea    0x0(,%rax,8),%rcx
    1517:	00 
    1518:	48 8d 15 01 5d 00 00 	lea    0x5d01(%rip),%rdx        # 7220 <qu>
    151f:	48 8b 45 f8          	mov    -0x8(%rbp),%rax
    1523:	48 89 04 11          	mov    %rax,(%rcx,%rdx,1)
    1527:	c9                   	leave
    1528:	c3                   	ret

0000000000001529 <dequeue>:
    1529:	f3 0f 1e fa          	endbr64
    152d:	55                   	push   %rbp
    152e:	48 89 e5             	mov    %rsp,%rbp
    1531:	48 83 ec 10          	sub    $0x10,%rsp
    1535:	e8 af fe ff ff       	call   13e9 <isEmpty>
    153a:	66 85 c0             	test   %ax,%ax
    153d:	74 16                	je     1555 <dequeue+0x2c>
    153f:	48 8d 05 12 3b 00 00 	lea    0x3b12(%rip),%rax        # 5058 <_IO_stdin_used+0x58>
    1546:	48 89 c7             	mov    %rax,%rdi
    1549:	e8 82 fc ff ff       	call   11d0 <puts@plt>
    154e:	b8 00 00 00 00       	mov    $0x0,%eax
    1553:	eb 79                	jmp    15ce <dequeue+0xa5>
    1555:	8b 05 e5 5a 00 00    	mov    0x5ae5(%rip),%eax        # 7040 <front>
    155b:	48 98                	cltq
    155d:	48 8d 14 c5 00 00 00 	lea    0x0(,%rax,8),%rdx
    1564:	00 
    1565:	48 8d 05 b4 5c 00 00 	lea    0x5cb4(%rip),%rax        # 7220 <qu>
    156c:	48 8b 04 02          	mov    (%rdx,%rax,1),%rax
    1570:	48 89 45 f8          	mov    %rax,-0x8(%rbp)
    1574:	8b 15 c6 5a 00 00    	mov    0x5ac6(%rip),%edx        # 7040 <front>
    157a:	8b 05 c4 5a 00 00    	mov    0x5ac4(%rip),%eax        # 7044 <rear>
    1580:	39 c2                	cmp    %eax,%edx
    1582:	75 23                	jne    15a7 <dequeue+0x7e>
    1584:	8b 05 b6 5a 00 00    	mov    0x5ab6(%rip),%eax        # 7040 <front>
    158a:	83 f8 ff             	cmp    $0xffffffff,%eax
    158d:	74 18                	je     15a7 <dequeue+0x7e>
    158f:	c7 05 ab 5a 00 00 ff 	movl   $0xffffffff,0x5aab(%rip)        # 7044 <rear>
    1596:	ff ff ff 
    1599:	8b 05 a5 5a 00 00    	mov    0x5aa5(%rip),%eax        # 7044 <rear>
    159f:	89 05 9b 5a 00 00    	mov    %eax,0x5a9b(%rip)        # 7040 <front>
    15a5:	eb 23                	jmp    15ca <dequeue+0xa1>
    15a7:	8b 05 93 5a 00 00    	mov    0x5a93(%rip),%eax        # 7040 <front>
    15ad:	8d 50 01             	lea    0x1(%rax),%edx
    15b0:	89 d0                	mov    %edx,%eax
    15b2:	c1 f8 1f             	sar    $0x1f,%eax
    15b5:	c1 e8 1f             	shr    $0x1f,%eax
    15b8:	01 c2                	add    %eax,%edx
    15ba:	83 e2 01             	and    $0x1,%edx
    15bd:	29 c2                	sub    %eax,%edx
    15bf:	89 d0                	mov    %edx,%eax
    15c1:	c1 e0 02             	shl    $0x2,%eax
    15c4:	89 05 76 5a 00 00    	mov    %eax,0x5a76(%rip)        # 7040 <front>
    15ca:	48 8b 45 f8          	mov    -0x8(%rbp),%rax
    15ce:	c9                   	leave
    15cf:	c3                   	ret

00000000000015d0 <getSize>:
    15d0:	f3 0f 1e fa          	endbr64
    15d4:	55                   	push   %rbp
    15d5:	48 89 e5             	mov    %rsp,%rbp
    15d8:	48 83 ec 20          	sub    $0x20,%rsp
    15dc:	48 89 7d e8          	mov    %rdi,-0x18(%rbp)
    15e0:	48 8b 45 e8          	mov    -0x18(%rbp),%rax
    15e4:	48 8d 15 b0 3a 00 00 	lea    0x3ab0(%rip),%rdx        # 509b <_IO_stdin_used+0x9b>
    15eb:	48 89 d6             	mov    %rdx,%rsi
    15ee:	48 89 c7             	mov    %rax,%rdi
    15f1:	e8 da fc ff ff       	call   12d0 <fopen@plt>
    15f6:	48 89 45 f0          	mov    %rax,-0x10(%rbp)
    15fa:	48 83 7d f0 00       	cmpq   $0x0,-0x10(%rbp)
    15ff:	75 19                	jne    161a <getSize+0x4a>
    1601:	48 8d 05 96 3a 00 00 	lea    0x3a96(%rip),%rax        # 509e <_IO_stdin_used+0x9e>
    1608:	48 89 c7             	mov    %rax,%rdi
    160b:	e8 d0 fc ff ff       	call   12e0 <perror@plt>
    1610:	bf 01 00 00 00       	mov    $0x1,%edi
    1615:	e8 d6 fc ff ff       	call   12f0 <exit@plt>
    161a:	48 8b 45 f0          	mov    -0x10(%rbp),%rax
    161e:	ba 02 00 00 00       	mov    $0x2,%edx
    1623:	be 00 00 00 00       	mov    $0x0,%esi
    1628:	48 89 c7             	mov    %rax,%rdi
    162b:	e8 90 fc ff ff       	call   12c0 <fseek@plt>
    1630:	48 8b 45 f0          	mov    -0x10(%rbp),%rax
    1634:	48 89 c7             	mov    %rax,%rdi
    1637:	e8 54 fc ff ff       	call   1290 <ftell@plt>
    163c:	48 89 45 f8          	mov    %rax,-0x8(%rbp)
    1640:	48 8b 45 f0          	mov    -0x10(%rbp),%rax
    1644:	48 89 c7             	mov    %rax,%rdi
    1647:	e8 e4 fb ff ff       	call   1230 <rewind@plt>
    164c:	48 8b 45 f0          	mov    -0x10(%rbp),%rax
    1650:	48 89 c7             	mov    %rax,%rdi
    1653:	e8 98 fb ff ff       	call   11f0 <fclose@plt>
    1658:	48 8b 45 f8          	mov    -0x8(%rbp),%rax
    165c:	c9                   	leave
    165d:	c3                   	ret

000000000000165e <loadIntoMemory>:
    165e:	f3 0f 1e fa          	endbr64
    1662:	55                   	push   %rbp
    1663:	48 89 e5             	mov    %rsp,%rbp
    1666:	48 83 ec 30          	sub    $0x30,%rsp
    166a:	48 89 7d e8          	mov    %rdi,-0x18(%rbp)
    166e:	48 89 75 e0          	mov    %rsi,-0x20(%rbp)
    1672:	48 89 55 d8          	mov    %rdx,-0x28(%rbp)
    1676:	48 8b 45 e8          	mov    -0x18(%rbp),%rax
    167a:	48 8d 15 1a 3a 00 00 	lea    0x3a1a(%rip),%rdx        # 509b <_IO_stdin_used+0x9b>
    1681:	48 89 d6             	mov    %rdx,%rsi
    1684:	48 89 c7             	mov    %rax,%rdi
    1687:	e8 44 fc ff ff       	call   12d0 <fopen@plt>
    168c:	48 89 45 f0          	mov    %rax,-0x10(%rbp)
    1690:	48 83 7d f0 00       	cmpq   $0x0,-0x10(%rbp)
    1695:	75 19                	jne    16b0 <loadIntoMemory+0x52>
    1697:	48 8d 05 00 3a 00 00 	lea    0x3a00(%rip),%rax        # 509e <_IO_stdin_used+0x9e>
    169e:	48 89 c7             	mov    %rax,%rdi
    16a1:	e8 3a fc ff ff       	call   12e0 <perror@plt>
    16a6:	bf 01 00 00 00       	mov    $0x1,%edi
    16ab:	e8 40 fc ff ff       	call   12f0 <exit@plt>
    16b0:	48 8d 15 c9 59 00 00 	lea    0x59c9(%rip),%rdx        # 7080 <mainMem>
    16b7:	48 8b 45 e0          	mov    -0x20(%rbp),%rax
    16bb:	48 8d 3c 02          	lea    (%rdx,%rax,1),%rdi
    16bf:	48 8b 55 f0          	mov    -0x10(%rbp),%rdx
    16c3:	48 8b 45 d8          	mov    -0x28(%rbp),%rax
    16c7:	48 89 d1             	mov    %rdx,%rcx
    16ca:	48 89 c2             	mov    %rax,%rdx
    16cd:	be 01 00 00 00       	mov    $0x1,%esi
    16d2:	e8 09 fb ff ff       	call   11e0 <fread@plt>
    16d7:	48 89 45 f8          	mov    %rax,-0x8(%rbp)
    16db:	48 8b 55 e0          	mov    -0x20(%rbp),%rdx
    16df:	48 8b 45 d8          	mov    -0x28(%rbp),%rax
    16e3:	48 01 d0             	add    %rdx,%rax
    16e6:	48 8d 48 ff          	lea    -0x1(%rax),%rcx
    16ea:	48 8b 55 e0          	mov    -0x20(%rbp),%rdx
    16ee:	48 8b 45 e8          	mov    -0x18(%rbp),%rax
    16f2:	48 89 c6             	mov    %rax,%rsi
    16f5:	48 8d 05 bc 39 00 00 	lea    0x39bc(%rip),%rax        # 50b8 <_IO_stdin_used+0xb8>
    16fc:	48 89 c7             	mov    %rax,%rdi
    16ff:	b8 00 00 00 00       	mov    $0x0,%eax
    1704:	e8 17 fb ff ff       	call   1220 <printf@plt>
    1709:	48 8b 45 f0          	mov    -0x10(%rbp),%rax
    170d:	48 89 c7             	mov    %rax,%rdi
    1710:	e8 db fa ff ff       	call   11f0 <fclose@plt>
    1715:	90                   	nop
    1716:	c9                   	leave
    1717:	c3                   	ret

0000000000001718 <allocateID>:
    1718:	f3 0f 1e fa          	endbr64
    171c:	55                   	push   %rbp
    171d:	48 89 e5             	mov    %rsp,%rbp
    1720:	8b 05 22 59 00 00    	mov    0x5922(%rip),%eax        # 7048 <nextID>
    1726:	8d 50 01             	lea    0x1(%rax),%edx
    1729:	89 15 19 59 00 00    	mov    %edx,0x5919(%rip)        # 7048 <nextID>
    172f:	5d                   	pop    %rbp
    1730:	c3                   	ret

0000000000001731 <initiateMemBlocks>:
    1731:	f3 0f 1e fa          	endbr64
    1735:	55                   	push   %rbp
    1736:	48 89 e5             	mov    %rsp,%rbp
    1739:	48 c7 45 f8 00 00 00 	movq   $0x0,-0x8(%rbp)
    1740:	00 
    1741:	c7 45 f4 00 00 00 00 	movl   $0x0,-0xc(%rbp)
    1748:	e9 0f 01 00 00       	jmp    185c <initiateMemBlocks+0x12b>
    174d:	8b 45 f4             	mov    -0xc(%rbp),%eax
    1750:	48 63 d0             	movslq %eax,%rdx
    1753:	48 89 d0             	mov    %rdx,%rax
    1756:	48 c1 e0 02          	shl    $0x2,%rax
    175a:	48 01 d0             	add    %rdx,%rax
    175d:	48 c1 e0 03          	shl    $0x3,%rax
    1761:	48 89 c1             	mov    %rax,%rcx
    1764:	48 8d 15 15 5a 00 00 	lea    0x5a15(%rip),%rdx        # 7180 <memArr>
    176b:	48 8b 45 f8          	mov    -0x8(%rbp),%rax
    176f:	48 89 04 11          	mov    %rax,(%rcx,%rdx,1)
    1773:	8b 45 f4             	mov    -0xc(%rbp),%eax
    1776:	48 98                	cltq
    1778:	48 8d 14 c5 00 00 00 	lea    0x0(,%rax,8),%rdx
    177f:	00 
    1780:	48 8d 05 99 58 00 00 	lea    0x5899(%rip),%rax        # 7020 <memArrSize>
    1787:	48 8b 14 02          	mov    (%rdx,%rax,1),%rdx
    178b:	48 8b 45 f8          	mov    -0x8(%rbp),%rax
    178f:	48 01 d0             	add    %rdx,%rax
    1792:	48 8d 48 ff          	lea    -0x1(%rax),%rcx
    1796:	8b 45 f4             	mov    -0xc(%rbp),%eax
    1799:	48 63 d0             	movslq %eax,%rdx
    179c:	48 89 d0             	mov    %rdx,%rax
    179f:	48 c1 e0 02          	shl    $0x2,%rax
    17a3:	48 01 d0             	add    %rdx,%rax
    17a6:	48 c1 e0 03          	shl    $0x3,%rax
    17aa:	48 89 c2             	mov    %rax,%rdx
    17ad:	48 8d 05 d4 59 00 00 	lea    0x59d4(%rip),%rax        # 7188 <memArr+0x8>
    17b4:	48 89 0c 02          	mov    %rcx,(%rdx,%rax,1)
    17b8:	8b 45 f4             	mov    -0xc(%rbp),%eax
    17bb:	48 98                	cltq
    17bd:	48 8d 14 c5 00 00 00 	lea    0x0(,%rax,8),%rdx
    17c4:	00 
    17c5:	48 8d 05 54 58 00 00 	lea    0x5854(%rip),%rax        # 7020 <memArrSize>
    17cc:	48 8b 0c 02          	mov    (%rdx,%rax,1),%rcx
    17d0:	8b 45 f4             	mov    -0xc(%rbp),%eax
    17d3:	48 63 d0             	movslq %eax,%rdx
    17d6:	48 89 d0             	mov    %rdx,%rax
    17d9:	48 c1 e0 02          	shl    $0x2,%rax
    17dd:	48 01 d0             	add    %rdx,%rax
    17e0:	48 c1 e0 03          	shl    $0x3,%rax
    17e4:	48 89 c2             	mov    %rax,%rdx
    17e7:	48 8d 05 a2 59 00 00 	lea    0x59a2(%rip),%rax        # 7190 <memArr+0x10>
    17ee:	48 89 0c 02          	mov    %rcx,(%rdx,%rax,1)
    17f2:	8b 45 f4             	mov    -0xc(%rbp),%eax
    17f5:	48 63 d0             	movslq %eax,%rdx
    17f8:	48 89 d0             	mov    %rdx,%rax
    17fb:	48 c1 e0 02          	shl    $0x2,%rax
    17ff:	48 01 d0             	add    %rdx,%rax
    1802:	48 c1 e0 03          	shl    $0x3,%rax
    1806:	48 89 c2             	mov    %rax,%rdx
    1809:	48 8d 05 88 59 00 00 	lea    0x5988(%rip),%rax        # 7198 <memArr+0x18>
    1810:	66 c7 04 02 01 00    	movw   $0x1,(%rdx,%rax,1)
    1816:	8b 45 f4             	mov    -0xc(%rbp),%eax
    1819:	48 63 d0             	movslq %eax,%rdx
    181c:	48 89 d0             	mov    %rdx,%rax
    181f:	48 c1 e0 02          	shl    $0x2,%rax
    1823:	48 01 d0             	add    %rdx,%rax
    1826:	48 c1 e0 03          	shl    $0x3,%rax
    182a:	48 89 c2             	mov    %rax,%rdx
    182d:	48 8d 05 6c 59 00 00 	lea    0x596c(%rip),%rax        # 71a0 <memArr+0x20>
    1834:	48 c7 04 02 00 00 00 	movq   $0x0,(%rdx,%rax,1)
    183b:	00 
    183c:	8b 45 f4             	mov    -0xc(%rbp),%eax
    183f:	48 98                	cltq
    1841:	48 8d 14 c5 00 00 00 	lea    0x0(,%rax,8),%rdx
    1848:	00 
    1849:	48 8d 05 d0 57 00 00 	lea    0x57d0(%rip),%rax        # 7020 <memArrSize>
    1850:	48 8b 04 02          	mov    (%rdx,%rax,1),%rax
    1854:	48 01 45 f8          	add    %rax,-0x8(%rbp)
    1858:	83 45 f4 01          	addl   $0x1,-0xc(%rbp)
    185c:	83 7d f4 03          	cmpl   $0x3,-0xc(%rbp)
    1860:	0f 8e e7 fe ff ff    	jle    174d <initiateMemBlocks+0x1c>
    1866:	90                   	nop
    1867:	90                   	nop
    1868:	5d                   	pop    %rbp
    1869:	c3                   	ret

000000000000186a <existsInMap>:
    186a:	f3 0f 1e fa          	endbr64
    186e:	55                   	push   %rbp
    186f:	48 89 e5             	mov    %rsp,%rbp
    1872:	48 83 ec 20          	sub    $0x20,%rsp
    1876:	48 89 7d e8          	mov    %rdi,-0x18(%rbp)
    187a:	64 48 8b 04 25 28 00 	mov    %fs:0x28,%rax
    1881:	00 00 
    1883:	48 89 45 f8          	mov    %rax,-0x8(%rbp)
    1887:	31 c0                	xor    %eax,%eax
    1889:	48 c7 45 f0 00 00 00 	movq   $0x0,-0x10(%rbp)
    1890:	00 
    1891:	48 8b 45 e8          	mov    -0x18(%rbp),%rax
    1895:	48 89 c7             	mov    %rax,%rdi
    1898:	e8 63 f9 ff ff       	call   1200 <strlen@plt>
    189d:	48 8d 78 01          	lea    0x1(%rax),%rdi
    18a1:	48 8b 05 b8 59 00 00 	mov    0x59b8(%rip),%rax        # 7260 <procMap>
    18a8:	48 8d 55 f0          	lea    -0x10(%rbp),%rdx
    18ac:	48 8b 75 e8          	mov    -0x18(%rbp),%rsi
    18b0:	48 89 d1             	mov    %rdx,%rcx
    18b3:	48 89 fa             	mov    %rdi,%rdx
    18b6:	48 89 c7             	mov    %rax,%rdi
    18b9:	e8 42 18 00 00       	call   3100 <map_get>
    18be:	85 c0                	test   %eax,%eax
    18c0:	74 07                	je     18c9 <existsInMap+0x5f>
    18c2:	b8 01 00 00 00       	mov    $0x1,%eax
    18c7:	eb 05                	jmp    18ce <existsInMap+0x64>
    18c9:	b8 00 00 00 00       	mov    $0x0,%eax
    18ce:	48 8b 55 f8          	mov    -0x8(%rbp),%rdx
    18d2:	64 48 2b 14 25 28 00 	sub    %fs:0x28,%rdx
    18d9:	00 00 
    18db:	74 05                	je     18e2 <existsInMap+0x78>
    18dd:	e8 2e f9 ff ff       	call   1210 <__stack_chk_fail@plt>
    18e2:	c9                   	leave
    18e3:	c3                   	ret

00000000000018e4 <createProcess>:
    18e4:	f3 0f 1e fa          	endbr64
    18e8:	55                   	push   %rbp
    18e9:	48 89 e5             	mov    %rsp,%rbp
    18ec:	53                   	push   %rbx
    18ed:	48 83 ec 38          	sub    $0x38,%rsp
    18f1:	48 89 7d c8          	mov    %rdi,-0x38(%rbp)
    18f5:	89 f0                	mov    %esi,%eax
    18f7:	66 89 45 c4          	mov    %ax,-0x3c(%rbp)
    18fb:	48 8b 45 c8          	mov    -0x38(%rbp),%rax
    18ff:	48 89 c7             	mov    %rax,%rdi
    1902:	e8 c9 fc ff ff       	call   15d0 <getSize>
    1907:	48 89 45 e0          	mov    %rax,-0x20(%rbp)
    190b:	66 c7 45 da 00 00    	movw   $0x0,-0x26(%rbp)
    1911:	c7 45 dc 00 00 00 00 	movl   $0x0,-0x24(%rbp)
    1918:	e9 ac 01 00 00       	jmp    1ac9 <createProcess+0x1e5>
    191d:	8b 45 dc             	mov    -0x24(%rbp),%eax
    1920:	48 63 d0             	movslq %eax,%rdx
    1923:	48 89 d0             	mov    %rdx,%rax
    1926:	48 c1 e0 02          	shl    $0x2,%rax
    192a:	48 01 d0             	add    %rdx,%rax
    192d:	48 c1 e0 03          	shl    $0x3,%rax
    1931:	48 89 c2             	mov    %rax,%rdx
    1934:	48 8d 05 5d 58 00 00 	lea    0x585d(%rip),%rax        # 7198 <memArr+0x18>
    193b:	0f b7 04 02          	movzwl (%rdx,%rax,1),%eax
    193f:	66 85 c0             	test   %ax,%ax
    1942:	0f 84 7d 01 00 00    	je     1ac5 <createProcess+0x1e1>
    1948:	8b 45 dc             	mov    -0x24(%rbp),%eax
    194b:	48 63 d0             	movslq %eax,%rdx
    194e:	48 89 d0             	mov    %rdx,%rax
    1951:	48 c1 e0 02          	shl    $0x2,%rax
    1955:	48 01 d0             	add    %rdx,%rax
    1958:	48 c1 e0 03          	shl    $0x3,%rax
    195c:	48 89 c2             	mov    %rax,%rdx
    195f:	48 8d 05 2a 58 00 00 	lea    0x582a(%rip),%rax        # 7190 <memArr+0x10>
    1966:	48 8b 04 02          	mov    (%rdx,%rax,1),%rax
    196a:	48 3b 45 e0          	cmp    -0x20(%rbp),%rax
    196e:	0f 82 51 01 00 00    	jb     1ac5 <createProcess+0x1e1>
    1974:	bf 90 00 00 00       	mov    $0x90,%edi
    1979:	e8 32 f9 ff ff       	call   12b0 <malloc@plt>
    197e:	48 89 45 e8          	mov    %rax,-0x18(%rbp)
    1982:	e8 91 fd ff ff       	call   1718 <allocateID>
    1987:	48 63 d0             	movslq %eax,%rdx
    198a:	48 8b 45 e8          	mov    -0x18(%rbp),%rax
    198e:	48 89 10             	mov    %rdx,(%rax)
    1991:	48 8b 45 e8          	mov    -0x18(%rbp),%rax
    1995:	66 c7 40 08 00 00    	movw   $0x0,0x8(%rax)
    199b:	48 8b 45 e8          	mov    -0x18(%rbp),%rax
    199f:	48 8b 55 e0          	mov    -0x20(%rbp),%rdx
    19a3:	48 89 50 10          	mov    %rdx,0x10(%rax)
    19a7:	8b 45 dc             	mov    -0x24(%rbp),%eax
    19aa:	48 63 d0             	movslq %eax,%rdx
    19ad:	48 89 d0             	mov    %rdx,%rax
    19b0:	48 c1 e0 02          	shl    $0x2,%rax
    19b4:	48 01 d0             	add    %rdx,%rax
    19b7:	48 c1 e0 03          	shl    $0x3,%rax
    19bb:	48 89 c2             	mov    %rax,%rdx
    19be:	48 8d 05 bb 57 00 00 	lea    0x57bb(%rip),%rax        # 7180 <memArr>
    19c5:	48 8b 14 02          	mov    (%rdx,%rax,1),%rdx
    19c9:	48 8b 45 e8          	mov    -0x18(%rbp),%rax
    19cd:	48 89 50 18          	mov    %rdx,0x18(%rax)
    19d1:	8b 45 dc             	mov    -0x24(%rbp),%eax
    19d4:	48 63 d0             	movslq %eax,%rdx
    19d7:	48 89 d0             	mov    %rdx,%rax
    19da:	48 c1 e0 02          	shl    $0x2,%rax
    19de:	48 01 d0             	add    %rdx,%rax
    19e1:	48 c1 e0 03          	shl    $0x3,%rax
    19e5:	48 89 c2             	mov    %rax,%rdx
    19e8:	48 8d 05 91 57 00 00 	lea    0x5791(%rip),%rax        # 7180 <memArr>
    19ef:	48 8b 14 02          	mov    (%rdx,%rax,1),%rdx
    19f3:	48 8b 45 e8          	mov    -0x18(%rbp),%rax
    19f7:	48 8b 40 10          	mov    0x10(%rax),%rax
    19fb:	48 01 d0             	add    %rdx,%rax
    19fe:	48 8d 50 ff          	lea    -0x1(%rax),%rdx
    1a02:	48 8b 45 e8          	mov    -0x18(%rbp),%rax
    1a06:	48 89 50 20          	mov    %rdx,0x20(%rax)
    1a0a:	48 8b 45 e8          	mov    -0x18(%rbp),%rax
    1a0e:	48 8d 50 28          	lea    0x28(%rax),%rdx
    1a12:	48 8b 45 c8          	mov    -0x38(%rbp),%rax
    1a16:	48 89 c6             	mov    %rax,%rsi
    1a19:	48 89 d7             	mov    %rdx,%rdi
    1a1c:	e8 9f f7 ff ff       	call   11c0 <strcpy@plt>
    1a21:	8b 45 dc             	mov    -0x24(%rbp),%eax
    1a24:	48 63 d0             	movslq %eax,%rdx
    1a27:	48 89 d0             	mov    %rdx,%rax
    1a2a:	48 c1 e0 02          	shl    $0x2,%rax
    1a2e:	48 01 d0             	add    %rdx,%rax
    1a31:	48 c1 e0 03          	shl    $0x3,%rax
    1a35:	48 89 c1             	mov    %rax,%rcx
    1a38:	48 8d 15 61 57 00 00 	lea    0x5761(%rip),%rdx        # 71a0 <memArr+0x20>
    1a3f:	48 8b 45 e8          	mov    -0x18(%rbp),%rax
    1a43:	48 89 04 11          	mov    %rax,(%rcx,%rdx,1)
    1a47:	8b 45 dc             	mov    -0x24(%rbp),%eax
    1a4a:	48 63 d0             	movslq %eax,%rdx
    1a4d:	48 89 d0             	mov    %rdx,%rax
    1a50:	48 c1 e0 02          	shl    $0x2,%rax
    1a54:	48 01 d0             	add    %rdx,%rax
    1a57:	48 c1 e0 03          	shl    $0x3,%rax
    1a5b:	48 89 c2             	mov    %rax,%rdx
    1a5e:	48 8d 05 33 57 00 00 	lea    0x5733(%rip),%rax        # 7198 <memArr+0x18>
    1a65:	66 c7 04 02 00 00    	movw   $0x0,(%rdx,%rax,1)
    1a6b:	66 c7 45 da 01 00    	movw   $0x1,-0x26(%rbp)
    1a71:	48 8b 45 e8          	mov    -0x18(%rbp),%rax
    1a75:	48 8b 50 10          	mov    0x10(%rax),%rdx
    1a79:	48 8b 45 e8          	mov    -0x18(%rbp),%rax
    1a7d:	48 8b 48 18          	mov    0x18(%rax),%rcx
    1a81:	48 8b 45 c8          	mov    -0x38(%rbp),%rax
    1a85:	48 89 ce             	mov    %rcx,%rsi
    1a88:	48 89 c7             	mov    %rax,%rdi
    1a8b:	e8 ce fb ff ff       	call   165e <loadIntoMemory>
    1a90:	48 8b 5d e8          	mov    -0x18(%rbp),%rbx
    1a94:	48 8b 45 c8          	mov    -0x38(%rbp),%rax
    1a98:	48 89 c7             	mov    %rax,%rdi
    1a9b:	e8 60 f7 ff ff       	call   1200 <strlen@plt>
    1aa0:	48 8d 50 01          	lea    0x1(%rax),%rdx
    1aa4:	48 8b 45 c8          	mov    -0x38(%rbp),%rax
    1aa8:	41 b8 08 00 00 00    	mov    $0x8,%r8d
    1aae:	48 89 d9             	mov    %rbx,%rcx
    1ab1:	48 89 c6             	mov    %rax,%rsi
    1ab4:	48 8d 05 a5 57 00 00 	lea    0x57a5(%rip),%rax        # 7260 <procMap>
    1abb:	48 89 c7             	mov    %rax,%rdi
    1abe:	e8 f2 06 00 00       	call   21b5 <map_put>
    1ac3:	eb 0e                	jmp    1ad3 <createProcess+0x1ef>
    1ac5:	83 45 dc 01          	addl   $0x1,-0x24(%rbp)
    1ac9:	83 7d dc 03          	cmpl   $0x3,-0x24(%rbp)
    1acd:	0f 8e 4a fe ff ff    	jle    191d <createProcess+0x39>
    1ad3:	66 83 7d da 00       	cmpw   $0x0,-0x26(%rbp)
    1ad8:	75 23                	jne    1afd <createProcess+0x219>
    1ada:	66 83 7d c4 00       	cmpw   $0x0,-0x3c(%rbp)
    1adf:	75 1c                	jne    1afd <createProcess+0x219>
    1ae1:	48 8b 45 c8          	mov    -0x38(%rbp),%rax
    1ae5:	48 89 c7             	mov    %rax,%rdi
    1ae8:	e8 7d fd ff ff       	call   186a <existsInMap>
    1aed:	85 c0                	test   %eax,%eax
    1aef:	75 0c                	jne    1afd <createProcess+0x219>
    1af1:	48 8b 45 c8          	mov    -0x38(%rbp),%rax
    1af5:	48 89 c7             	mov    %rax,%rdi
    1af8:	e8 51 f9 ff ff       	call   144e <enqueue>
    1afd:	0f b7 45 da          	movzwl -0x26(%rbp),%eax
    1b01:	48 8b 5d f8          	mov    -0x8(%rbp),%rbx
    1b05:	c9                   	leave
    1b06:	c3                   	ret

0000000000001b07 <terminateProcess>:
    1b07:	f3 0f 1e fa          	endbr64
    1b0b:	55                   	push   %rbp
    1b0c:	48 89 e5             	mov    %rsp,%rbp
    1b0f:	48 83 ec 20          	sub    $0x20,%rsp
    1b13:	89 7d ec             	mov    %edi,-0x14(%rbp)
    1b16:	8b 45 ec             	mov    -0x14(%rbp),%eax
    1b19:	48 63 d0             	movslq %eax,%rdx
    1b1c:	48 89 d0             	mov    %rdx,%rax
    1b1f:	48 c1 e0 02          	shl    $0x2,%rax
    1b23:	48 01 d0             	add    %rdx,%rax
    1b26:	48 c1 e0 03          	shl    $0x3,%rax
    1b2a:	48 89 c2             	mov    %rax,%rdx
    1b2d:	48 8d 05 6c 56 00 00 	lea    0x566c(%rip),%rax        # 71a0 <memArr+0x20>
    1b34:	48 8b 04 02          	mov    (%rdx,%rax,1),%rax
    1b38:	48 89 45 f8          	mov    %rax,-0x8(%rbp)
    1b3c:	48 8b 45 f8          	mov    -0x8(%rbp),%rax
    1b40:	48 8b 00             	mov    (%rax),%rax
    1b43:	48 89 c6             	mov    %rax,%rsi
    1b46:	48 8d 05 94 35 00 00 	lea    0x3594(%rip),%rax        # 50e1 <_IO_stdin_used+0xe1>
    1b4d:	48 89 c7             	mov    %rax,%rdi
    1b50:	b8 00 00 00 00       	mov    $0x0,%eax
    1b55:	e8 c6 f6 ff ff       	call   1220 <printf@plt>
    1b5a:	48 8b 45 f8          	mov    -0x8(%rbp),%rax
    1b5e:	48 83 c0 28          	add    $0x28,%rax
    1b62:	48 89 c7             	mov    %rax,%rdi
    1b65:	e8 96 f6 ff ff       	call   1200 <strlen@plt>
    1b6a:	48 8d 50 01          	lea    0x1(%rax),%rdx
    1b6e:	48 8b 45 f8          	mov    -0x8(%rbp),%rax
    1b72:	48 8d 48 28          	lea    0x28(%rax),%rcx
    1b76:	48 8b 05 e3 56 00 00 	mov    0x56e3(%rip),%rax        # 7260 <procMap>
    1b7d:	48 89 ce             	mov    %rcx,%rsi
    1b80:	48 89 c7             	mov    %rax,%rdi
    1b83:	e8 c5 21 00 00       	call   3d4d <map_remove>
    1b88:	48 8b 45 f8          	mov    -0x8(%rbp),%rax
    1b8c:	48 89 c7             	mov    %rax,%rdi
    1b8f:	e8 0c f6 ff ff       	call   11a0 <free@plt>
    1b94:	8b 45 ec             	mov    -0x14(%rbp),%eax
    1b97:	48 63 d0             	movslq %eax,%rdx
    1b9a:	48 89 d0             	mov    %rdx,%rax
    1b9d:	48 c1 e0 02          	shl    $0x2,%rax
    1ba1:	48 01 d0             	add    %rdx,%rax
    1ba4:	48 c1 e0 03          	shl    $0x3,%rax
    1ba8:	48 89 c2             	mov    %rax,%rdx
    1bab:	48 8d 05 ee 55 00 00 	lea    0x55ee(%rip),%rax        # 71a0 <memArr+0x20>
    1bb2:	48 c7 04 02 00 00 00 	movq   $0x0,(%rdx,%rax,1)
    1bb9:	00 
    1bba:	8b 45 ec             	mov    -0x14(%rbp),%eax
    1bbd:	48 63 d0             	movslq %eax,%rdx
    1bc0:	48 89 d0             	mov    %rdx,%rax
    1bc3:	48 c1 e0 02          	shl    $0x2,%rax
    1bc7:	48 01 d0             	add    %rdx,%rax
    1bca:	48 c1 e0 03          	shl    $0x3,%rax
    1bce:	48 89 c2             	mov    %rax,%rdx
    1bd1:	48 8d 05 c0 55 00 00 	lea    0x55c0(%rip),%rax        # 7198 <memArr+0x18>
    1bd8:	66 c7 04 02 01 00    	movw   $0x1,(%rdx,%rax,1)
    1bde:	8b 45 ec             	mov    -0x14(%rbp),%eax
    1be1:	89 c6                	mov    %eax,%esi
    1be3:	48 8d 05 13 35 00 00 	lea    0x3513(%rip),%rax        # 50fd <_IO_stdin_used+0xfd>
    1bea:	48 89 c7             	mov    %rax,%rdi
    1bed:	b8 00 00 00 00       	mov    $0x0,%eax
    1bf2:	e8 29 f6 ff ff       	call   1220 <printf@plt>
    1bf7:	90                   	nop
    1bf8:	c9                   	leave
    1bf9:	c3                   	ret

0000000000001bfa <checkWaitingQueue>:
    1bfa:	f3 0f 1e fa          	endbr64
    1bfe:	55                   	push   %rbp
    1bff:	48 89 e5             	mov    %rsp,%rbp
    1c02:	53                   	push   %rbx
    1c03:	48 83 ec 38          	sub    $0x38,%rsp
    1c07:	48 89 7d c8          	mov    %rdi,-0x38(%rbp)
    1c0b:	e8 d9 f7 ff ff       	call   13e9 <isEmpty>
    1c10:	66 85 c0             	test   %ax,%ax
    1c13:	75 1d                	jne    1c32 <checkWaitingQueue+0x38>
    1c15:	8b 05 25 54 00 00    	mov    0x5425(%rip),%eax        # 7040 <front>
    1c1b:	48 98                	cltq
    1c1d:	48 8d 14 c5 00 00 00 	lea    0x0(,%rax,8),%rdx
    1c24:	00 
    1c25:	48 8d 05 f4 55 00 00 	lea    0x55f4(%rip),%rax        # 7220 <qu>
    1c2c:	48 8b 04 02          	mov    (%rdx,%rax,1),%rax
    1c30:	eb 05                	jmp    1c37 <checkWaitingQueue+0x3d>
    1c32:	b8 00 00 00 00       	mov    $0x0,%eax
    1c37:	48 89 45 d8          	mov    %rax,-0x28(%rbp)
    1c3b:	e8 a9 f7 ff ff       	call   13e9 <isEmpty>
    1c40:	66 85 c0             	test   %ax,%ax
    1c43:	0f 85 de 01 00 00    	jne    1e27 <checkWaitingQueue+0x22d>
    1c49:	48 8b 55 c8          	mov    -0x38(%rbp),%rdx
    1c4d:	48 89 d0             	mov    %rdx,%rax
    1c50:	48 c1 e0 02          	shl    $0x2,%rax
    1c54:	48 01 d0             	add    %rdx,%rax
    1c57:	48 c1 e0 03          	shl    $0x3,%rax
    1c5b:	48 89 c2             	mov    %rax,%rdx
    1c5e:	48 8d 05 2b 55 00 00 	lea    0x552b(%rip),%rax        # 7190 <memArr+0x10>
    1c65:	48 8b 1c 02          	mov    (%rdx,%rax,1),%rbx
    1c69:	48 8b 45 d8          	mov    -0x28(%rbp),%rax
    1c6d:	48 89 c7             	mov    %rax,%rdi
    1c70:	e8 5b f9 ff ff       	call   15d0 <getSize>
    1c75:	48 39 c3             	cmp    %rax,%rbx
    1c78:	0f 82 a9 01 00 00    	jb     1e27 <checkWaitingQueue+0x22d>
    1c7e:	bf 90 00 00 00       	mov    $0x90,%edi
    1c83:	e8 28 f6 ff ff       	call   12b0 <malloc@plt>
    1c88:	48 89 45 e0          	mov    %rax,-0x20(%rbp)
    1c8c:	e8 87 fa ff ff       	call   1718 <allocateID>
    1c91:	48 63 d0             	movslq %eax,%rdx
    1c94:	48 8b 45 e0          	mov    -0x20(%rbp),%rax
    1c98:	48 89 10             	mov    %rdx,(%rax)
    1c9b:	48 8b 45 e0          	mov    -0x20(%rbp),%rax
    1c9f:	66 c7 40 08 00 00    	movw   $0x0,0x8(%rax)
    1ca5:	48 8b 45 d8          	mov    -0x28(%rbp),%rax
    1ca9:	48 89 c7             	mov    %rax,%rdi
    1cac:	e8 1f f9 ff ff       	call   15d0 <getSize>
    1cb1:	48 8b 55 e0          	mov    -0x20(%rbp),%rdx
    1cb5:	48 89 42 10          	mov    %rax,0x10(%rdx)
    1cb9:	48 8b 55 c8          	mov    -0x38(%rbp),%rdx
    1cbd:	48 89 d0             	mov    %rdx,%rax
    1cc0:	48 c1 e0 02          	shl    $0x2,%rax
    1cc4:	48 01 d0             	add    %rdx,%rax
    1cc7:	48 c1 e0 03          	shl    $0x3,%rax
    1ccb:	48 89 c2             	mov    %rax,%rdx
    1cce:	48 8d 05 ab 54 00 00 	lea    0x54ab(%rip),%rax        # 7180 <memArr>
    1cd5:	48 8b 14 02          	mov    (%rdx,%rax,1),%rdx
    1cd9:	48 8b 45 e0          	mov    -0x20(%rbp),%rax
    1cdd:	48 89 50 18          	mov    %rdx,0x18(%rax)
    1ce1:	48 8b 55 c8          	mov    -0x38(%rbp),%rdx
    1ce5:	48 89 d0             	mov    %rdx,%rax
    1ce8:	48 c1 e0 02          	shl    $0x2,%rax
    1cec:	48 01 d0             	add    %rdx,%rax
    1cef:	48 c1 e0 03          	shl    $0x3,%rax
    1cf3:	48 89 c2             	mov    %rax,%rdx
    1cf6:	48 8d 05 83 54 00 00 	lea    0x5483(%rip),%rax        # 7180 <memArr>
    1cfd:	48 8b 14 02          	mov    (%rdx,%rax,1),%rdx
    1d01:	48 8b 45 e0          	mov    -0x20(%rbp),%rax
    1d05:	48 8b 40 10          	mov    0x10(%rax),%rax
    1d09:	48 01 d0             	add    %rdx,%rax
    1d0c:	48 8d 50 ff          	lea    -0x1(%rax),%rdx
    1d10:	48 8b 45 e0          	mov    -0x20(%rbp),%rax
    1d14:	48 89 50 20          	mov    %rdx,0x20(%rax)
    1d18:	48 8b 45 e0          	mov    -0x20(%rbp),%rax
    1d1c:	48 8d 50 28          	lea    0x28(%rax),%rdx
    1d20:	48 8b 45 d8          	mov    -0x28(%rbp),%rax
    1d24:	48 89 c6             	mov    %rax,%rsi
    1d27:	48 89 d7             	mov    %rdx,%rdi
    1d2a:	e8 91 f4 ff ff       	call   11c0 <strcpy@plt>
    1d2f:	48 8b 55 c8          	mov    -0x38(%rbp),%rdx
    1d33:	48 89 d0             	mov    %rdx,%rax
    1d36:	48 c1 e0 02          	shl    $0x2,%rax
    1d3a:	48 01 d0             	add    %rdx,%rax
    1d3d:	48 c1 e0 03          	shl    $0x3,%rax
    1d41:	48 89 c1             	mov    %rax,%rcx
    1d44:	48 8d 15 55 54 00 00 	lea    0x5455(%rip),%rdx        # 71a0 <memArr+0x20>
    1d4b:	48 8b 45 e0          	mov    -0x20(%rbp),%rax
    1d4f:	48 89 04 11          	mov    %rax,(%rcx,%rdx,1)
    1d53:	48 8b 55 c8          	mov    -0x38(%rbp),%rdx
    1d57:	48 89 d0             	mov    %rdx,%rax
    1d5a:	48 c1 e0 02          	shl    $0x2,%rax
    1d5e:	48 01 d0             	add    %rdx,%rax
    1d61:	48 c1 e0 03          	shl    $0x3,%rax
    1d65:	48 89 c2             	mov    %rax,%rdx
    1d68:	48 8d 05 29 54 00 00 	lea    0x5429(%rip),%rax        # 7198 <memArr+0x18>
    1d6f:	66 c7 04 02 00 00    	movw   $0x0,(%rdx,%rax,1)
    1d75:	48 8b 45 e0          	mov    -0x20(%rbp),%rax
    1d79:	48 8b 50 10          	mov    0x10(%rax),%rdx
    1d7d:	48 8b 45 e0          	mov    -0x20(%rbp),%rax
    1d81:	48 8b 48 18          	mov    0x18(%rax),%rcx
    1d85:	48 8b 45 d8          	mov    -0x28(%rbp),%rax
    1d89:	48 89 ce             	mov    %rcx,%rsi
    1d8c:	48 89 c7             	mov    %rax,%rdi
    1d8f:	e8 ca f8 ff ff       	call   165e <loadIntoMemory>
    1d94:	48 8b 5d e0          	mov    -0x20(%rbp),%rbx
    1d98:	48 8b 45 d8          	mov    -0x28(%rbp),%rax
    1d9c:	48 89 c7             	mov    %rax,%rdi
    1d9f:	e8 5c f4 ff ff       	call   1200 <strlen@plt>
    1da4:	48 8d 50 01          	lea    0x1(%rax),%rdx
    1da8:	48 8b 45 d8          	mov    -0x28(%rbp),%rax
    1dac:	41 b8 08 00 00 00    	mov    $0x8,%r8d
    1db2:	48 89 d9             	mov    %rbx,%rcx
    1db5:	48 89 c6             	mov    %rax,%rsi
    1db8:	48 8d 05 a1 54 00 00 	lea    0x54a1(%rip),%rax        # 7260 <procMap>
    1dbf:	48 89 c7             	mov    %rax,%rdi
    1dc2:	e8 ee 03 00 00       	call   21b5 <map_put>
    1dc7:	e8 5d f7 ff ff       	call   1529 <dequeue>
    1dcc:	66 c7 45 d6 01 00    	movw   $0x1,-0x2a(%rbp)
    1dd2:	eb 42                	jmp    1e16 <checkWaitingQueue+0x21c>
    1dd4:	8b 05 66 52 00 00    	mov    0x5266(%rip),%eax        # 7040 <front>
    1dda:	48 98                	cltq
    1ddc:	48 8d 14 c5 00 00 00 	lea    0x0(,%rax,8),%rdx
    1de3:	00 
    1de4:	48 8d 05 35 54 00 00 	lea    0x5435(%rip),%rax        # 7220 <qu>
    1deb:	48 8b 04 02          	mov    (%rdx,%rax,1),%rax
    1def:	48 89 45 e8          	mov    %rax,-0x18(%rbp)
    1df3:	48 8b 45 e8          	mov    -0x18(%rbp),%rax
    1df7:	be 01 00 00 00       	mov    $0x1,%esi
    1dfc:	48 89 c7             	mov    %rax,%rdi
    1dff:	e8 e0 fa ff ff       	call   18e4 <createProcess>
    1e04:	66 85 c0             	test   %ax,%ax
    1e07:	74 07                	je     1e10 <checkWaitingQueue+0x216>
    1e09:	e8 1b f7 ff ff       	call   1529 <dequeue>
    1e0e:	eb 06                	jmp    1e16 <checkWaitingQueue+0x21c>
    1e10:	66 c7 45 d6 00 00    	movw   $0x0,-0x2a(%rbp)
    1e16:	e8 ce f5 ff ff       	call   13e9 <isEmpty>
    1e1b:	66 85 c0             	test   %ax,%ax
    1e1e:	75 07                	jne    1e27 <checkWaitingQueue+0x22d>
    1e20:	66 83 7d d6 00       	cmpw   $0x0,-0x2a(%rbp)
    1e25:	75 ad                	jne    1dd4 <checkWaitingQueue+0x1da>
    1e27:	90                   	nop
    1e28:	48 8b 5d f8          	mov    -0x8(%rbp),%rbx
    1e2c:	c9                   	leave
    1e2d:	c3                   	ret

0000000000001e2e <executeProcess>:
    1e2e:	f3 0f 1e fa          	endbr64
    1e32:	55                   	push   %rbp
    1e33:	48 89 e5             	mov    %rsp,%rbp
    1e36:	48 83 ec 30          	sub    $0x30,%rsp
    1e3a:	48 89 7d d8          	mov    %rdi,-0x28(%rbp)
    1e3e:	c7 45 ec 00 00 00 00 	movl   $0x0,-0x14(%rbp)
    1e45:	e9 37 01 00 00       	jmp    1f81 <executeProcess+0x153>
    1e4a:	8b 45 ec             	mov    -0x14(%rbp),%eax
    1e4d:	48 63 d0             	movslq %eax,%rdx
    1e50:	48 89 d0             	mov    %rdx,%rax
    1e53:	48 c1 e0 02          	shl    $0x2,%rax
    1e57:	48 01 d0             	add    %rdx,%rax
    1e5a:	48 c1 e0 03          	shl    $0x3,%rax
    1e5e:	48 89 c2             	mov    %rax,%rdx
    1e61:	48 8d 05 38 53 00 00 	lea    0x5338(%rip),%rax        # 71a0 <memArr+0x20>
    1e68:	48 8b 04 02          	mov    (%rdx,%rax,1),%rax
    1e6c:	48 85 c0             	test   %rax,%rax
    1e6f:	0f 84 08 01 00 00    	je     1f7d <executeProcess+0x14f>
    1e75:	8b 45 ec             	mov    -0x14(%rbp),%eax
    1e78:	48 63 d0             	movslq %eax,%rdx
    1e7b:	48 89 d0             	mov    %rdx,%rax
    1e7e:	48 c1 e0 02          	shl    $0x2,%rax
    1e82:	48 01 d0             	add    %rdx,%rax
    1e85:	48 c1 e0 03          	shl    $0x3,%rax
    1e89:	48 89 c2             	mov    %rax,%rdx
    1e8c:	48 8d 05 0d 53 00 00 	lea    0x530d(%rip),%rax        # 71a0 <memArr+0x20>
    1e93:	48 8b 04 02          	mov    (%rdx,%rax,1),%rax
    1e97:	48 8b 00             	mov    (%rax),%rax
    1e9a:	48 39 45 d8          	cmp    %rax,-0x28(%rbp)
    1e9e:	0f 85 d9 00 00 00    	jne    1f7d <executeProcess+0x14f>
    1ea4:	8b 45 ec             	mov    -0x14(%rbp),%eax
    1ea7:	48 63 d0             	movslq %eax,%rdx
    1eaa:	48 89 d0             	mov    %rdx,%rax
    1ead:	48 c1 e0 02          	shl    $0x2,%rax
    1eb1:	48 01 d0             	add    %rdx,%rax
    1eb4:	48 c1 e0 03          	shl    $0x3,%rax
    1eb8:	48 89 c2             	mov    %rax,%rdx
    1ebb:	48 8d 05 de 52 00 00 	lea    0x52de(%rip),%rax        # 71a0 <memArr+0x20>
    1ec2:	48 8b 04 02          	mov    (%rdx,%rax,1),%rax
    1ec6:	48 89 45 f8          	mov    %rax,-0x8(%rbp)
    1eca:	48 8b 45 d8          	mov    -0x28(%rbp),%rax
    1ece:	48 89 c6             	mov    %rax,%rsi
    1ed1:	48 8d 05 3f 32 00 00 	lea    0x323f(%rip),%rax        # 5117 <_IO_stdin_used+0x117>
    1ed8:	48 89 c7             	mov    %rax,%rdi
    1edb:	b8 00 00 00 00       	mov    $0x0,%eax
    1ee0:	e8 3b f3 ff ff       	call   1220 <printf@plt>
    1ee5:	48 8b 45 f8          	mov    -0x8(%rbp),%rax
    1ee9:	48 8b 50 20          	mov    0x20(%rax),%rdx
    1eed:	48 8b 45 f8          	mov    -0x8(%rbp),%rax
    1ef1:	48 8b 40 18          	mov    0x18(%rax),%rax
    1ef5:	48 89 c6             	mov    %rax,%rsi
    1ef8:	48 8d 05 33 32 00 00 	lea    0x3233(%rip),%rax        # 5132 <_IO_stdin_used+0x132>
    1eff:	48 89 c7             	mov    %rax,%rdi
    1f02:	b8 00 00 00 00       	mov    $0x0,%eax
    1f07:	e8 14 f3 ff ff       	call   1220 <printf@plt>
    1f0c:	48 8d 05 38 32 00 00 	lea    0x3238(%rip),%rax        # 514b <_IO_stdin_used+0x14b>
    1f13:	48 89 c7             	mov    %rax,%rdi
    1f16:	e8 b5 f2 ff ff       	call   11d0 <puts@plt>
    1f1b:	48 8b 45 f8          	mov    -0x8(%rbp),%rax
    1f1f:	48 8b 40 18          	mov    0x18(%rax),%rax
    1f23:	48 89 45 f0          	mov    %rax,-0x10(%rbp)
    1f27:	eb 20                	jmp    1f49 <executeProcess+0x11b>
    1f29:	48 8d 15 50 51 00 00 	lea    0x5150(%rip),%rdx        # 7080 <mainMem>
    1f30:	48 8b 45 f0          	mov    -0x10(%rbp),%rax
    1f34:	48 01 d0             	add    %rdx,%rax
    1f37:	0f b6 00             	movzbl (%rax),%eax
    1f3a:	0f be c0             	movsbl %al,%eax
    1f3d:	89 c7                	mov    %eax,%edi
    1f3f:	e8 6c f2 ff ff       	call   11b0 <putchar@plt>
    1f44:	48 83 45 f0 01       	addq   $0x1,-0x10(%rbp)
    1f49:	48 8b 45 f8          	mov    -0x8(%rbp),%rax
    1f4d:	48 8b 40 20          	mov    0x20(%rax),%rax
    1f51:	48 3b 45 f0          	cmp    -0x10(%rbp),%rax
    1f55:	73 d2                	jae    1f29 <executeProcess+0xfb>
    1f57:	48 8d 05 f5 31 00 00 	lea    0x31f5(%rip),%rax        # 5153 <_IO_stdin_used+0x153>
    1f5e:	48 89 c7             	mov    %rax,%rdi
    1f61:	e8 6a f2 ff ff       	call   11d0 <puts@plt>
    1f66:	8b 45 ec             	mov    -0x14(%rbp),%eax
    1f69:	89 c7                	mov    %eax,%edi
    1f6b:	e8 97 fb ff ff       	call   1b07 <terminateProcess>
    1f70:	8b 45 ec             	mov    -0x14(%rbp),%eax
    1f73:	48 98                	cltq
    1f75:	48 89 c7             	mov    %rax,%rdi
    1f78:	e8 7d fc ff ff       	call   1bfa <checkWaitingQueue>
    1f7d:	83 45 ec 01          	addl   $0x1,-0x14(%rbp)
    1f81:	83 7d ec 03          	cmpl   $0x3,-0x14(%rbp)
    1f85:	0f 8e bf fe ff ff    	jle    1e4a <executeProcess+0x1c>
    1f8b:	90                   	nop
    1f8c:	90                   	nop
    1f8d:	c9                   	leave
    1f8e:	c3                   	ret

0000000000001f8f <main>:
    1f8f:	f3 0f 1e fa          	endbr64
    1f93:	55                   	push   %rbp
    1f94:	48 89 e5             	mov    %rsp,%rbp
    1f97:	48 83 c4 80          	add    $0xffffffffffffff80,%rsp
    1f9b:	64 48 8b 04 25 28 00 	mov    %fs:0x28,%rax
    1fa2:	00 00 
    1fa4:	48 89 45 f8          	mov    %rax,-0x8(%rbp)
    1fa8:	31 c0                	xor    %eax,%eax
    1faa:	e8 db 01 00 00       	call   218a <map_create>
    1faf:	48 89 05 aa 52 00 00 	mov    %rax,0x52aa(%rip)        # 7260 <procMap>
    1fb6:	e8 76 f7 ff ff       	call   1731 <initiateMemBlocks>
    1fbb:	48 8d 05 ae 31 00 00 	lea    0x31ae(%rip),%rax        # 5170 <_IO_stdin_used+0x170>
    1fc2:	48 89 c7             	mov    %rax,%rdi
    1fc5:	e8 06 f2 ff ff       	call   11d0 <puts@plt>
    1fca:	48 8d 05 cf 31 00 00 	lea    0x31cf(%rip),%rax        # 51a0 <_IO_stdin_used+0x1a0>
    1fd1:	48 89 c7             	mov    %rax,%rdi
    1fd4:	b8 00 00 00 00       	mov    $0x0,%eax
    1fd9:	e8 42 f2 ff ff       	call   1220 <printf@plt>
    1fde:	48 8b 15 7b 50 00 00 	mov    0x507b(%rip),%rdx        # 7060 <stdin@GLIBC_2.2.5>
    1fe5:	48 8d 45 90          	lea    -0x70(%rbp),%rax
    1fe9:	be 64 00 00 00       	mov    $0x64,%esi
    1fee:	48 89 c7             	mov    %rax,%rdi
    1ff1:	e8 7a f2 ff ff       	call   1270 <fgets@plt>
    1ff6:	48 8d 45 90          	lea    -0x70(%rbp),%rax
    1ffa:	48 8d 15 a3 31 00 00 	lea    0x31a3(%rip),%rdx        # 51a4 <_IO_stdin_used+0x1a4>
    2001:	48 89 d6             	mov    %rdx,%rsi
    2004:	48 89 c7             	mov    %rax,%rdi
    2007:	e8 44 f2 ff ff       	call   1250 <strcspn@plt>
    200c:	c6 44 05 90 00       	movb   $0x0,-0x70(%rbp,%rax,1)
    2011:	48 8d 45 90          	lea    -0x70(%rbp),%rax
    2015:	48 8d 15 8a 31 00 00 	lea    0x318a(%rip),%rdx        # 51a6 <_IO_stdin_used+0x1a6>
    201c:	48 89 d6             	mov    %rdx,%rsi
    201f:	48 89 c7             	mov    %rax,%rdi
    2022:	e8 59 f2 ff ff       	call   1280 <strcmp@plt>
    2027:	85 c0                	test   %eax,%eax
    2029:	75 02                	jne    202d <main+0x9e>
    202b:	eb 6a                	jmp    2097 <main+0x108>
    202d:	48 8d 45 90          	lea    -0x70(%rbp),%rax
    2031:	be 00 00 00 00       	mov    $0x0,%esi
    2036:	48 89 c7             	mov    %rax,%rdi
    2039:	e8 a6 f8 ff ff       	call   18e4 <createProcess>
    203e:	66 85 c0             	test   %ax,%ax
    2041:	74 20                	je     2063 <main+0xd4>
    2043:	48 8d 45 90          	lea    -0x70(%rbp),%rax
    2047:	48 89 c6             	mov    %rax,%rsi
    204a:	48 8d 05 5f 31 00 00 	lea    0x315f(%rip),%rax        # 51b0 <_IO_stdin_used+0x1b0>
    2051:	48 89 c7             	mov    %rax,%rdi
    2054:	b8 00 00 00 00       	mov    $0x0,%eax
    2059:	e8 c2 f1 ff ff       	call   1220 <printf@plt>
    205e:	e9 67 ff ff ff       	jmp    1fca <main+0x3b>
    2063:	48 8d 45 90          	lea    -0x70(%rbp),%rax
    2067:	48 89 c7             	mov    %rax,%rdi
    206a:	e8 fb f7 ff ff       	call   186a <existsInMap>
    206f:	85 c0                	test   %eax,%eax
    2071:	0f 85 53 ff ff ff    	jne    1fca <main+0x3b>
    2077:	48 8d 45 90          	lea    -0x70(%rbp),%rax
    207b:	48 89 c6             	mov    %rax,%rsi
    207e:	48 8d 05 5b 31 00 00 	lea    0x315b(%rip),%rax        # 51e0 <_IO_stdin_used+0x1e0>
    2085:	48 89 c7             	mov    %rax,%rdi
    2088:	b8 00 00 00 00       	mov    $0x0,%eax
    208d:	e8 8e f1 ff ff       	call   1220 <printf@plt>
    2092:	e9 33 ff ff ff       	jmp    1fca <main+0x3b>
    2097:	48 8d 05 02 31 00 00 	lea    0x3102(%rip),%rax        # 51a0 <_IO_stdin_used+0x1a0>
    209e:	48 89 c7             	mov    %rax,%rdi
    20a1:	b8 00 00 00 00       	mov    $0x0,%eax
    20a6:	e8 75 f1 ff ff       	call   1220 <printf@plt>
    20ab:	48 8b 15 ae 4f 00 00 	mov    0x4fae(%rip),%rdx        # 7060 <stdin@GLIBC_2.2.5>
    20b2:	48 8d 45 90          	lea    -0x70(%rbp),%rax
    20b6:	be 64 00 00 00       	mov    $0x64,%esi
    20bb:	48 89 c7             	mov    %rax,%rdi
    20be:	e8 ad f1 ff ff       	call   1270 <fgets@plt>
    20c3:	48 8d 45 90          	lea    -0x70(%rbp),%rax
    20c7:	48 8d 15 d6 30 00 00 	lea    0x30d6(%rip),%rdx        # 51a4 <_IO_stdin_used+0x1a4>
    20ce:	48 89 d6             	mov    %rdx,%rsi
    20d1:	48 89 c7             	mov    %rax,%rdi
    20d4:	e8 77 f1 ff ff       	call   1250 <strcspn@plt>
    20d9:	c6 44 05 90 00       	movb   $0x0,-0x70(%rbp,%rax,1)
    20de:	48 8d 45 90          	lea    -0x70(%rbp),%rax
    20e2:	48 8d 15 bd 30 00 00 	lea    0x30bd(%rip),%rdx        # 51a6 <_IO_stdin_used+0x1a6>
    20e9:	48 89 d6             	mov    %rdx,%rsi
    20ec:	48 89 c7             	mov    %rax,%rdi
    20ef:	e8 8c f1 ff ff       	call   1280 <strcmp@plt>
    20f4:	85 c0                	test   %eax,%eax
    20f6:	75 16                	jne    210e <main+0x17f>
    20f8:	b8 00 00 00 00       	mov    $0x0,%eax
    20fd:	48 8b 55 f8          	mov    -0x8(%rbp),%rdx
    2101:	64 48 2b 14 25 28 00 	sub    %fs:0x28,%rdx
    2108:	00 00 
    210a:	74 7c                	je     2188 <main+0x1f9>
    210c:	eb 75                	jmp    2183 <main+0x1f4>
    210e:	48 c7 45 80 00 00 00 	movq   $0x0,-0x80(%rbp)
    2115:	00 
    2116:	48 8d 45 90          	lea    -0x70(%rbp),%rax
    211a:	48 89 c7             	mov    %rax,%rdi
    211d:	e8 de f0 ff ff       	call   1200 <strlen@plt>
    2122:	48 8d 78 01          	lea    0x1(%rax),%rdi
    2126:	48 8b 05 33 51 00 00 	mov    0x5133(%rip),%rax        # 7260 <procMap>
    212d:	48 8d 55 80          	lea    -0x80(%rbp),%rdx
    2131:	48 8d 75 90          	lea    -0x70(%rbp),%rsi
    2135:	48 89 d1             	mov    %rdx,%rcx
    2138:	48 89 fa             	mov    %rdi,%rdx
    213b:	48 89 c7             	mov    %rax,%rdi
    213e:	e8 bd 0f 00 00       	call   3100 <map_get>
    2143:	85 c0                	test   %eax,%eax
    2145:	74 1c                	je     2163 <main+0x1d4>
    2147:	48 8b 45 80          	mov    -0x80(%rbp),%rax
    214b:	48 8b 00             	mov    (%rax),%rax
    214e:	48 89 45 88          	mov    %rax,-0x78(%rbp)
    2152:	48 8b 45 88          	mov    -0x78(%rbp),%rax
    2156:	48 89 c7             	mov    %rax,%rdi
    2159:	e8 d0 fc ff ff       	call   1e2e <executeProcess>
    215e:	e9 34 ff ff ff       	jmp    2097 <main+0x108>
    2163:	48 8d 45 90          	lea    -0x70(%rbp),%rax
    2167:	48 89 c6             	mov    %rax,%rsi
    216a:	48 8d 05 92 30 00 00 	lea    0x3092(%rip),%rax        # 5203 <_IO_stdin_used+0x203>
    2171:	48 89 c7             	mov    %rax,%rdi
    2174:	b8 00 00 00 00       	mov    $0x0,%eax
    2179:	e8 a2 f0 ff ff       	call   1220 <printf@plt>
    217e:	e9 14 ff ff ff       	jmp    2097 <main+0x108>
    2183:	e8 88 f0 ff ff       	call   1210 <__stack_chk_fail@plt>
    2188:	c9                   	leave
    2189:	c3                   	ret

000000000000218a <map_create>:
    218a:	f3 0f 1e fa          	endbr64
    218e:	55                   	push   %rbp
    218f:	48 89 e5             	mov    %rsp,%rbp
    2192:	48 83 ec 10          	sub    $0x10,%rsp
    2196:	bf 08 00 00 00       	mov    $0x8,%edi
    219b:	e8 10 f1 ff ff       	call   12b0 <malloc@plt>
    21a0:	48 89 45 f8          	mov    %rax,-0x8(%rbp)
    21a4:	48 8b 45 f8          	mov    -0x8(%rbp),%rax
    21a8:	48 c7 00 00 00 00 00 	movq   $0x0,(%rax)
    21af:	48 8b 45 f8          	mov    -0x8(%rbp),%rax
    21b3:	c9                   	leave
    21b4:	c3                   	ret

00000000000021b5 <map_put>:
    21b5:	f3 0f 1e fa          	endbr64
    21b9:	55                   	push   %rbp
    21ba:	48 89 e5             	mov    %rsp,%rbp
    21bd:	53                   	push   %rbx
    21be:	48 81 ec a8 00 00 00 	sub    $0xa8,%rsp
    21c5:	48 89 bd 78 ff ff ff 	mov    %rdi,-0x88(%rbp)
    21cc:	48 89 b5 70 ff ff ff 	mov    %rsi,-0x90(%rbp)
    21d3:	48 89 95 68 ff ff ff 	mov    %rdx,-0x98(%rbp)
    21da:	48 89 8d 60 ff ff ff 	mov    %rcx,-0xa0(%rbp)
    21e1:	4c 89 85 58 ff ff ff 	mov    %r8,-0xa8(%rbp)
    21e8:	48 c7 45 b0 00 00 00 	movq   $0x0,-0x50(%rbp)
    21ef:	00 
    21f0:	48 8b 85 78 ff ff ff 	mov    -0x88(%rbp),%rax
    21f7:	48 8b 00             	mov    (%rax),%rax
    21fa:	48 8b 00             	mov    (%rax),%rax
    21fd:	48 85 c0             	test   %rax,%rax
    2200:	0f 84 de 04 00 00    	je     26e4 <map_put+0x52f>
    2206:	48 8b 85 70 ff ff ff 	mov    -0x90(%rbp),%rax
    220d:	48 89 45 b8          	mov    %rax,-0x48(%rbp)
    2211:	c7 45 80 ef be ed fe 	movl   $0xfeedbeef,-0x80(%rbp)
    2218:	c7 45 88 b9 79 37 9e 	movl   $0x9e3779b9,-0x78(%rbp)
    221f:	8b 45 88             	mov    -0x78(%rbp),%eax
    2222:	89 45 84             	mov    %eax,-0x7c(%rbp)
    2225:	48 8b 85 68 ff ff ff 	mov    -0x98(%rbp),%rax
    222c:	89 45 8c             	mov    %eax,-0x74(%rbp)
    222f:	e9 a0 01 00 00       	jmp    23d4 <map_put+0x21f>
    2234:	48 8b 45 b8          	mov    -0x48(%rbp),%rax
    2238:	0f b6 00             	movzbl (%rax),%eax
    223b:	0f b6 c0             	movzbl %al,%eax
    223e:	48 8b 55 b8          	mov    -0x48(%rbp),%rdx
    2242:	48 83 c2 01          	add    $0x1,%rdx
    2246:	0f b6 12             	movzbl (%rdx),%edx
    2249:	0f b6 d2             	movzbl %dl,%edx
    224c:	c1 e2 08             	shl    $0x8,%edx
    224f:	01 c2                	add    %eax,%edx
    2251:	48 8b 45 b8          	mov    -0x48(%rbp),%rax
    2255:	48 83 c0 02          	add    $0x2,%rax
    2259:	0f b6 00             	movzbl (%rax),%eax
    225c:	0f b6 c0             	movzbl %al,%eax
    225f:	c1 e0 10             	shl    $0x10,%eax
    2262:	01 c2                	add    %eax,%edx
    2264:	48 8b 45 b8          	mov    -0x48(%rbp),%rax
    2268:	48 83 c0 03          	add    $0x3,%rax
    226c:	0f b6 00             	movzbl (%rax),%eax
    226f:	0f b6 c0             	movzbl %al,%eax
    2272:	c1 e0 18             	shl    $0x18,%eax
    2275:	01 d0                	add    %edx,%eax
    2277:	01 45 84             	add    %eax,-0x7c(%rbp)
    227a:	48 8b 45 b8          	mov    -0x48(%rbp),%rax
    227e:	48 83 c0 04          	add    $0x4,%rax
    2282:	0f b6 00             	movzbl (%rax),%eax
    2285:	0f b6 c0             	movzbl %al,%eax
    2288:	48 8b 55 b8          	mov    -0x48(%rbp),%rdx
    228c:	48 83 c2 05          	add    $0x5,%rdx
    2290:	0f b6 12             	movzbl (%rdx),%edx
    2293:	0f b6 d2             	movzbl %dl,%edx
    2296:	c1 e2 08             	shl    $0x8,%edx
    2299:	01 c2                	add    %eax,%edx
    229b:	48 8b 45 b8          	mov    -0x48(%rbp),%rax
    229f:	48 83 c0 06          	add    $0x6,%rax
    22a3:	0f b6 00             	movzbl (%rax),%eax
    22a6:	0f b6 c0             	movzbl %al,%eax
    22a9:	c1 e0 10             	shl    $0x10,%eax
    22ac:	01 c2                	add    %eax,%edx
    22ae:	48 8b 45 b8          	mov    -0x48(%rbp),%rax
    22b2:	48 83 c0 07          	add    $0x7,%rax
    22b6:	0f b6 00             	movzbl (%rax),%eax
    22b9:	0f b6 c0             	movzbl %al,%eax
    22bc:	c1 e0 18             	shl    $0x18,%eax
    22bf:	01 d0                	add    %edx,%eax
    22c1:	01 45 88             	add    %eax,-0x78(%rbp)
    22c4:	48 8b 45 b8          	mov    -0x48(%rbp),%rax
    22c8:	48 83 c0 08          	add    $0x8,%rax
    22cc:	0f b6 00             	movzbl (%rax),%eax
    22cf:	0f b6 c0             	movzbl %al,%eax
    22d2:	48 8b 55 b8          	mov    -0x48(%rbp),%rdx
    22d6:	48 83 c2 09          	add    $0x9,%rdx
    22da:	0f b6 12             	movzbl (%rdx),%edx
    22dd:	0f b6 d2             	movzbl %dl,%edx
    22e0:	c1 e2 08             	shl    $0x8,%edx
    22e3:	01 c2                	add    %eax,%edx
    22e5:	48 8b 45 b8          	mov    -0x48(%rbp),%rax
    22e9:	48 83 c0 0a          	add    $0xa,%rax
    22ed:	0f b6 00             	movzbl (%rax),%eax
    22f0:	0f b6 c0             	movzbl %al,%eax
    22f3:	c1 e0 10             	shl    $0x10,%eax
    22f6:	01 c2                	add    %eax,%edx
    22f8:	48 8b 45 b8          	mov    -0x48(%rbp),%rax
    22fc:	48 83 c0 0b          	add    $0xb,%rax
    2300:	0f b6 00             	movzbl (%rax),%eax
    2303:	0f b6 c0             	movzbl %al,%eax
    2306:	c1 e0 18             	shl    $0x18,%eax
    2309:	01 d0                	add    %edx,%eax
    230b:	01 45 80             	add    %eax,-0x80(%rbp)
    230e:	8b 45 88             	mov    -0x78(%rbp),%eax
    2311:	29 45 84             	sub    %eax,-0x7c(%rbp)
    2314:	8b 45 80             	mov    -0x80(%rbp),%eax
    2317:	29 45 84             	sub    %eax,-0x7c(%rbp)
    231a:	8b 45 80             	mov    -0x80(%rbp),%eax
    231d:	c1 e8 0d             	shr    $0xd,%eax
    2320:	31 45 84             	xor    %eax,-0x7c(%rbp)
    2323:	8b 45 80             	mov    -0x80(%rbp),%eax
    2326:	29 45 88             	sub    %eax,-0x78(%rbp)
    2329:	8b 45 84             	mov    -0x7c(%rbp),%eax
    232c:	29 45 88             	sub    %eax,-0x78(%rbp)
    232f:	8b 45 84             	mov    -0x7c(%rbp),%eax
    2332:	c1 e0 08             	shl    $0x8,%eax
    2335:	31 45 88             	xor    %eax,-0x78(%rbp)
    2338:	8b 45 84             	mov    -0x7c(%rbp),%eax
    233b:	29 45 80             	sub    %eax,-0x80(%rbp)
    233e:	8b 45 88             	mov    -0x78(%rbp),%eax
    2341:	29 45 80             	sub    %eax,-0x80(%rbp)
    2344:	8b 45 88             	mov    -0x78(%rbp),%eax
    2347:	c1 e8 0d             	shr    $0xd,%eax
    234a:	31 45 80             	xor    %eax,-0x80(%rbp)
    234d:	8b 45 88             	mov    -0x78(%rbp),%eax
    2350:	29 45 84             	sub    %eax,-0x7c(%rbp)
    2353:	8b 45 80             	mov    -0x80(%rbp),%eax
    2356:	29 45 84             	sub    %eax,-0x7c(%rbp)
    2359:	8b 45 80             	mov    -0x80(%rbp),%eax
    235c:	c1 e8 0c             	shr    $0xc,%eax
    235f:	31 45 84             	xor    %eax,-0x7c(%rbp)
    2362:	8b 45 80             	mov    -0x80(%rbp),%eax
    2365:	29 45 88             	sub    %eax,-0x78(%rbp)
    2368:	8b 45 84             	mov    -0x7c(%rbp),%eax
    236b:	29 45 88             	sub    %eax,-0x78(%rbp)
    236e:	8b 45 84             	mov    -0x7c(%rbp),%eax
    2371:	c1 e0 10             	shl    $0x10,%eax
    2374:	31 45 88             	xor    %eax,-0x78(%rbp)
    2377:	8b 45 84             	mov    -0x7c(%rbp),%eax
    237a:	29 45 80             	sub    %eax,-0x80(%rbp)
    237d:	8b 45 88             	mov    -0x78(%rbp),%eax
    2380:	29 45 80             	sub    %eax,-0x80(%rbp)
    2383:	8b 45 88             	mov    -0x78(%rbp),%eax
    2386:	c1 e8 05             	shr    $0x5,%eax
    2389:	31 45 80             	xor    %eax,-0x80(%rbp)
    238c:	8b 45 88             	mov    -0x78(%rbp),%eax
    238f:	29 45 84             	sub    %eax,-0x7c(%rbp)
    2392:	8b 45 80             	mov    -0x80(%rbp),%eax
    2395:	29 45 84             	sub    %eax,-0x7c(%rbp)
    2398:	8b 45 80             	mov    -0x80(%rbp),%eax
    239b:	c1 e8 03             	shr    $0x3,%eax
    239e:	31 45 84             	xor    %eax,-0x7c(%rbp)
    23a1:	8b 45 80             	mov    -0x80(%rbp),%eax
    23a4:	29 45 88             	sub    %eax,-0x78(%rbp)
    23a7:	8b 45 84             	mov    -0x7c(%rbp),%eax
    23aa:	29 45 88             	sub    %eax,-0x78(%rbp)
    23ad:	8b 45 84             	mov    -0x7c(%rbp),%eax
    23b0:	c1 e0 0a             	shl    $0xa,%eax
    23b3:	31 45 88             	xor    %eax,-0x78(%rbp)
    23b6:	8b 45 84             	mov    -0x7c(%rbp),%eax
    23b9:	29 45 80             	sub    %eax,-0x80(%rbp)
    23bc:	8b 45 88             	mov    -0x78(%rbp),%eax
    23bf:	29 45 80             	sub    %eax,-0x80(%rbp)
    23c2:	8b 45 88             	mov    -0x78(%rbp),%eax
    23c5:	c1 e8 0f             	shr    $0xf,%eax
    23c8:	31 45 80             	xor    %eax,-0x80(%rbp)
    23cb:	48 83 45 b8 0c       	addq   $0xc,-0x48(%rbp)
    23d0:	83 6d 8c 0c          	subl   $0xc,-0x74(%rbp)
    23d4:	83 7d 8c 0b          	cmpl   $0xb,-0x74(%rbp)
    23d8:	0f 87 56 fe ff ff    	ja     2234 <map_put+0x7f>
    23de:	48 8b 85 68 ff ff ff 	mov    -0x98(%rbp),%rax
    23e5:	01 45 80             	add    %eax,-0x80(%rbp)
    23e8:	83 7d 8c 0b          	cmpl   $0xb,-0x74(%rbp)
    23ec:	0f 87 f6 00 00 00    	ja     24e8 <map_put+0x333>
    23f2:	8b 45 8c             	mov    -0x74(%rbp),%eax
    23f5:	48 8d 14 85 00 00 00 	lea    0x0(,%rax,4),%rdx
    23fc:	00 
    23fd:	48 8d 05 18 2e 00 00 	lea    0x2e18(%rip),%rax        # 521c <_IO_stdin_used+0x21c>
    2404:	8b 04 02             	mov    (%rdx,%rax,1),%eax
    2407:	48 98                	cltq
    2409:	48 8d 15 0c 2e 00 00 	lea    0x2e0c(%rip),%rdx        # 521c <_IO_stdin_used+0x21c>
    2410:	48 01 d0             	add    %rdx,%rax
    2413:	3e ff e0             	notrack jmp *%rax
    2416:	48 8b 45 b8          	mov    -0x48(%rbp),%rax
    241a:	48 83 c0 0a          	add    $0xa,%rax
    241e:	0f b6 00             	movzbl (%rax),%eax
    2421:	0f b6 c0             	movzbl %al,%eax
    2424:	c1 e0 18             	shl    $0x18,%eax
    2427:	01 45 80             	add    %eax,-0x80(%rbp)
    242a:	48 8b 45 b8          	mov    -0x48(%rbp),%rax
    242e:	48 83 c0 09          	add    $0x9,%rax
    2432:	0f b6 00             	movzbl (%rax),%eax
    2435:	0f b6 c0             	movzbl %al,%eax
    2438:	c1 e0 10             	shl    $0x10,%eax
    243b:	01 45 80             	add    %eax,-0x80(%rbp)
    243e:	48 8b 45 b8          	mov    -0x48(%rbp),%rax
    2442:	48 83 c0 08          	add    $0x8,%rax
    2446:	0f b6 00             	movzbl (%rax),%eax
    2449:	0f b6 c0             	movzbl %al,%eax
    244c:	c1 e0 08             	shl    $0x8,%eax
    244f:	01 45 80             	add    %eax,-0x80(%rbp)
    2452:	48 8b 45 b8          	mov    -0x48(%rbp),%rax
    2456:	48 83 c0 07          	add    $0x7,%rax
    245a:	0f b6 00             	movzbl (%rax),%eax
    245d:	0f b6 c0             	movzbl %al,%eax
    2460:	c1 e0 18             	shl    $0x18,%eax
    2463:	01 45 88             	add    %eax,-0x78(%rbp)
    2466:	48 8b 45 b8          	mov    -0x48(%rbp),%rax
    246a:	48 83 c0 06          	add    $0x6,%rax
    246e:	0f b6 00             	movzbl (%rax),%eax
    2471:	0f b6 c0             	movzbl %al,%eax
    2474:	c1 e0 10             	shl    $0x10,%eax
    2477:	01 45 88             	add    %eax,-0x78(%rbp)
    247a:	48 8b 45 b8          	mov    -0x48(%rbp),%rax
    247e:	48 83 c0 05          	add    $0x5,%rax
    2482:	0f b6 00             	movzbl (%rax),%eax
    2485:	0f b6 c0             	movzbl %al,%eax
    2488:	c1 e0 08             	shl    $0x8,%eax
    248b:	01 45 88             	add    %eax,-0x78(%rbp)
    248e:	48 8b 45 b8          	mov    -0x48(%rbp),%rax
    2492:	48 83 c0 04          	add    $0x4,%rax
    2496:	0f b6 00             	movzbl (%rax),%eax
    2499:	0f b6 c0             	movzbl %al,%eax
    249c:	01 45 88             	add    %eax,-0x78(%rbp)
    249f:	48 8b 45 b8          	mov    -0x48(%rbp),%rax
    24a3:	48 83 c0 03          	add    $0x3,%rax
    24a7:	0f b6 00             	movzbl (%rax),%eax
    24aa:	0f b6 c0             	movzbl %al,%eax
    24ad:	c1 e0 18             	shl    $0x18,%eax
    24b0:	01 45 84             	add    %eax,-0x7c(%rbp)
    24b3:	48 8b 45 b8          	mov    -0x48(%rbp),%rax
    24b7:	48 83 c0 02          	add    $0x2,%rax
    24bb:	0f b6 00             	movzbl (%rax),%eax
    24be:	0f b6 c0             	movzbl %al,%eax
    24c1:	c1 e0 10             	shl    $0x10,%eax
    24c4:	01 45 84             	add    %eax,-0x7c(%rbp)
    24c7:	48 8b 45 b8          	mov    -0x48(%rbp),%rax
    24cb:	48 83 c0 01          	add    $0x1,%rax
    24cf:	0f b6 00             	movzbl (%rax),%eax
    24d2:	0f b6 c0             	movzbl %al,%eax
    24d5:	c1 e0 08             	shl    $0x8,%eax
    24d8:	01 45 84             	add    %eax,-0x7c(%rbp)
    24db:	48 8b 45 b8          	mov    -0x48(%rbp),%rax
    24df:	0f b6 00             	movzbl (%rax),%eax
    24e2:	0f b6 c0             	movzbl %al,%eax
    24e5:	01 45 84             	add    %eax,-0x7c(%rbp)
    24e8:	8b 45 88             	mov    -0x78(%rbp),%eax
    24eb:	29 45 84             	sub    %eax,-0x7c(%rbp)
    24ee:	8b 45 80             	mov    -0x80(%rbp),%eax
    24f1:	29 45 84             	sub    %eax,-0x7c(%rbp)
    24f4:	8b 45 80             	mov    -0x80(%rbp),%eax
    24f7:	c1 e8 0d             	shr    $0xd,%eax
    24fa:	31 45 84             	xor    %eax,-0x7c(%rbp)
    24fd:	8b 45 80             	mov    -0x80(%rbp),%eax
    2500:	29 45 88             	sub    %eax,-0x78(%rbp)
    2503:	8b 45 84             	mov    -0x7c(%rbp),%eax
    2506:	29 45 88             	sub    %eax,-0x78(%rbp)
    2509:	8b 45 84             	mov    -0x7c(%rbp),%eax
    250c:	c1 e0 08             	shl    $0x8,%eax
    250f:	31 45 88             	xor    %eax,-0x78(%rbp)
    2512:	8b 45 84             	mov    -0x7c(%rbp),%eax
    2515:	29 45 80             	sub    %eax,-0x80(%rbp)
    2518:	8b 45 88             	mov    -0x78(%rbp),%eax
    251b:	29 45 80             	sub    %eax,-0x80(%rbp)
    251e:	8b 45 88             	mov    -0x78(%rbp),%eax
    2521:	c1 e8 0d             	shr    $0xd,%eax
    2524:	31 45 80             	xor    %eax,-0x80(%rbp)
    2527:	8b 45 88             	mov    -0x78(%rbp),%eax
    252a:	29 45 84             	sub    %eax,-0x7c(%rbp)
    252d:	8b 45 80             	mov    -0x80(%rbp),%eax
    2530:	29 45 84             	sub    %eax,-0x7c(%rbp)
    2533:	8b 45 80             	mov    -0x80(%rbp),%eax
    2536:	c1 e8 0c             	shr    $0xc,%eax
    2539:	31 45 84             	xor    %eax,-0x7c(%rbp)
    253c:	8b 45 80             	mov    -0x80(%rbp),%eax
    253f:	29 45 88             	sub    %eax,-0x78(%rbp)
    2542:	8b 45 84             	mov    -0x7c(%rbp),%eax
    2545:	29 45 88             	sub    %eax,-0x78(%rbp)
    2548:	8b 45 84             	mov    -0x7c(%rbp),%eax
    254b:	c1 e0 10             	shl    $0x10,%eax
    254e:	31 45 88             	xor    %eax,-0x78(%rbp)
    2551:	8b 45 84             	mov    -0x7c(%rbp),%eax
    2554:	29 45 80             	sub    %eax,-0x80(%rbp)
    2557:	8b 45 88             	mov    -0x78(%rbp),%eax
    255a:	29 45 80             	sub    %eax,-0x80(%rbp)
    255d:	8b 45 88             	mov    -0x78(%rbp),%eax
    2560:	c1 e8 05             	shr    $0x5,%eax
    2563:	31 45 80             	xor    %eax,-0x80(%rbp)
    2566:	8b 45 88             	mov    -0x78(%rbp),%eax
    2569:	29 45 84             	sub    %eax,-0x7c(%rbp)
    256c:	8b 45 80             	mov    -0x80(%rbp),%eax
    256f:	29 45 84             	sub    %eax,-0x7c(%rbp)
    2572:	8b 45 80             	mov    -0x80(%rbp),%eax
    2575:	c1 e8 03             	shr    $0x3,%eax
    2578:	31 45 84             	xor    %eax,-0x7c(%rbp)
    257b:	8b 45 80             	mov    -0x80(%rbp),%eax
    257e:	29 45 88             	sub    %eax,-0x78(%rbp)
    2581:	8b 45 84             	mov    -0x7c(%rbp),%eax
    2584:	29 45 88             	sub    %eax,-0x78(%rbp)
    2587:	8b 45 84             	mov    -0x7c(%rbp),%eax
    258a:	c1 e0 0a             	shl    $0xa,%eax
    258d:	31 45 88             	xor    %eax,-0x78(%rbp)
    2590:	8b 45 84             	mov    -0x7c(%rbp),%eax
    2593:	29 45 80             	sub    %eax,-0x80(%rbp)
    2596:	8b 45 88             	mov    -0x78(%rbp),%eax
    2599:	29 45 80             	sub    %eax,-0x80(%rbp)
    259c:	8b 45 88             	mov    -0x78(%rbp),%eax
    259f:	c1 e8 0f             	shr    $0xf,%eax
    25a2:	31 45 80             	xor    %eax,-0x80(%rbp)
    25a5:	48 c7 45 b0 00 00 00 	movq   $0x0,-0x50(%rbp)
    25ac:	00 
    25ad:	48 8b 85 78 ff ff ff 	mov    -0x88(%rbp),%rax
    25b4:	48 8b 00             	mov    (%rax),%rax
    25b7:	48 8b 00             	mov    (%rax),%rax
    25ba:	48 85 c0             	test   %rax,%rax
    25bd:	0f 84 21 01 00 00    	je     26e4 <map_put+0x52f>
    25c3:	48 8b 85 78 ff ff ff 	mov    -0x88(%rbp),%rax
    25ca:	48 8b 00             	mov    (%rax),%rax
    25cd:	48 8b 00             	mov    (%rax),%rax
    25d0:	48 8b 40 20          	mov    0x20(%rax),%rax
    25d4:	8b 40 08             	mov    0x8(%rax),%eax
    25d7:	83 e8 01             	sub    $0x1,%eax
    25da:	23 45 80             	and    -0x80(%rbp),%eax
    25dd:	89 45 a4             	mov    %eax,-0x5c(%rbp)
    25e0:	48 8b 85 78 ff ff ff 	mov    -0x88(%rbp),%rax
    25e7:	48 8b 00             	mov    (%rax),%rax
    25ea:	48 8b 00             	mov    (%rax),%rax
    25ed:	48 8b 40 20          	mov    0x20(%rax),%rax
    25f1:	48 8b 00             	mov    (%rax),%rax
    25f4:	8b 55 a4             	mov    -0x5c(%rbp),%edx
    25f7:	48 c1 e2 04          	shl    $0x4,%rdx
    25fb:	48 01 d0             	add    %rdx,%rax
    25fe:	48 8b 00             	mov    (%rax),%rax
    2601:	48 85 c0             	test   %rax,%rax
    2604:	74 45                	je     264b <map_put+0x496>
    2606:	48 8b 85 78 ff ff ff 	mov    -0x88(%rbp),%rax
    260d:	48 8b 00             	mov    (%rax),%rax
    2610:	48 8b 00             	mov    (%rax),%rax
    2613:	48 8b 40 20          	mov    0x20(%rax),%rax
    2617:	48 8b 00             	mov    (%rax),%rax
    261a:	8b 55 a4             	mov    -0x5c(%rbp),%edx
    261d:	48 c1 e2 04          	shl    $0x4,%rdx
    2621:	48 01 d0             	add    %rdx,%rax
    2624:	48 8b 10             	mov    (%rax),%rdx
    2627:	48 8b 85 78 ff ff ff 	mov    -0x88(%rbp),%rax
    262e:	48 8b 00             	mov    (%rax),%rax
    2631:	48 8b 00             	mov    (%rax),%rax
    2634:	48 8b 40 20          	mov    0x20(%rax),%rax
    2638:	48 8b 40 20          	mov    0x20(%rax),%rax
    263c:	48 f7 d8             	neg    %rax
    263f:	48 01 d0             	add    %rdx,%rax
    2642:	48 89 45 b0          	mov    %rax,-0x50(%rbp)
    2646:	e9 8e 00 00 00       	jmp    26d9 <map_put+0x524>
    264b:	48 c7 45 b0 00 00 00 	movq   $0x0,-0x50(%rbp)
    2652:	00 
    2653:	e9 81 00 00 00       	jmp    26d9 <map_put+0x524>
    2658:	48 8b 45 b0          	mov    -0x50(%rbp),%rax
    265c:	8b 40 54             	mov    0x54(%rax),%eax
    265f:	39 45 80             	cmp    %eax,-0x80(%rbp)
    2662:	75 37                	jne    269b <map_put+0x4e6>
    2664:	48 8b 45 b0          	mov    -0x50(%rbp),%rax
    2668:	8b 40 50             	mov    0x50(%rax),%eax
    266b:	89 c0                	mov    %eax,%eax
    266d:	48 39 85 68 ff ff ff 	cmp    %rax,-0x98(%rbp)
    2674:	75 25                	jne    269b <map_put+0x4e6>
    2676:	48 8b 45 b0          	mov    -0x50(%rbp),%rax
    267a:	48 8b 40 48          	mov    0x48(%rax),%rax
    267e:	48 8b 95 68 ff ff ff 	mov    -0x98(%rbp),%rdx
    2685:	48 8b 8d 70 ff ff ff 	mov    -0x90(%rbp),%rcx
    268c:	48 89 ce             	mov    %rcx,%rsi
    268f:	48 89 c7             	mov    %rax,%rdi
    2692:	e8 c9 eb ff ff       	call   1260 <memcmp@plt>
    2697:	85 c0                	test   %eax,%eax
    2699:	74 49                	je     26e4 <map_put+0x52f>
    269b:	48 8b 45 b0          	mov    -0x50(%rbp),%rax
    269f:	48 8b 40 40          	mov    0x40(%rax),%rax
    26a3:	48 85 c0             	test   %rax,%rax
    26a6:	74 29                	je     26d1 <map_put+0x51c>
    26a8:	48 8b 45 b0          	mov    -0x50(%rbp),%rax
    26ac:	48 8b 50 40          	mov    0x40(%rax),%rdx
    26b0:	48 8b 85 78 ff ff ff 	mov    -0x88(%rbp),%rax
    26b7:	48 8b 00             	mov    (%rax),%rax
    26ba:	48 8b 00             	mov    (%rax),%rax
    26bd:	48 8b 40 20          	mov    0x20(%rax),%rax
    26c1:	48 8b 40 20          	mov    0x20(%rax),%rax
    26c5:	48 f7 d8             	neg    %rax
    26c8:	48 01 d0             	add    %rdx,%rax
    26cb:	48 89 45 b0          	mov    %rax,-0x50(%rbp)
    26cf:	eb 08                	jmp    26d9 <map_put+0x524>
    26d1:	48 c7 45 b0 00 00 00 	movq   $0x0,-0x50(%rbp)
    26d8:	00 
    26d9:	48 83 7d b0 00       	cmpq   $0x0,-0x50(%rbp)
    26de:	0f 85 74 ff ff ff    	jne    2658 <map_put+0x4a3>
    26e4:	48 83 7d b0 00       	cmpq   $0x0,-0x50(%rbp)
    26e9:	0f 85 b0 09 00 00    	jne    309f <map_put+0xeea>
    26ef:	bf 58 00 00 00       	mov    $0x58,%edi
    26f4:	e8 b7 eb ff ff       	call   12b0 <malloc@plt>
    26f9:	48 89 45 b0          	mov    %rax,-0x50(%rbp)
    26fd:	48 8b 85 68 ff ff ff 	mov    -0x98(%rbp),%rax
    2704:	48 89 c7             	mov    %rax,%rdi
    2707:	e8 a4 eb ff ff       	call   12b0 <malloc@plt>
    270c:	48 89 c2             	mov    %rax,%rdx
    270f:	48 8b 45 b0          	mov    -0x50(%rbp),%rax
    2713:	48 89 10             	mov    %rdx,(%rax)
    2716:	48 8b 45 b0          	mov    -0x50(%rbp),%rax
    271a:	48 8b 00             	mov    (%rax),%rax
    271d:	48 8b 95 68 ff ff ff 	mov    -0x98(%rbp),%rdx
    2724:	48 8b 8d 70 ff ff ff 	mov    -0x90(%rbp),%rcx
    272b:	48 89 ce             	mov    %rcx,%rsi
    272e:	48 89 c7             	mov    %rax,%rdi
    2731:	e8 6a eb ff ff       	call   12a0 <memcpy@plt>
    2736:	48 8b 45 b0          	mov    -0x50(%rbp),%rax
    273a:	48 8b 95 68 ff ff ff 	mov    -0x98(%rbp),%rdx
    2741:	48 89 50 08          	mov    %rdx,0x8(%rax)
    2745:	48 8b 85 58 ff ff ff 	mov    -0xa8(%rbp),%rax
    274c:	48 89 c7             	mov    %rax,%rdi
    274f:	e8 5c eb ff ff       	call   12b0 <malloc@plt>
    2754:	48 89 c2             	mov    %rax,%rdx
    2757:	48 8b 45 b0          	mov    -0x50(%rbp),%rax
    275b:	48 89 50 10          	mov    %rdx,0x10(%rax)
    275f:	48 8b 45 b0          	mov    -0x50(%rbp),%rax
    2763:	48 8b 40 10          	mov    0x10(%rax),%rax
    2767:	48 8b 95 58 ff ff ff 	mov    -0xa8(%rbp),%rdx
    276e:	48 8b 8d 60 ff ff ff 	mov    -0xa0(%rbp),%rcx
    2775:	48 89 ce             	mov    %rcx,%rsi
    2778:	48 89 c7             	mov    %rax,%rdi
    277b:	e8 20 eb ff ff       	call   12a0 <memcpy@plt>
    2780:	48 8b 45 b0          	mov    -0x50(%rbp),%rax
    2784:	48 8b 95 58 ff ff ff 	mov    -0xa8(%rbp),%rdx
    278b:	48 89 50 18          	mov    %rdx,0x18(%rax)
    278f:	48 8b 45 b0          	mov    -0x50(%rbp),%rax
    2793:	48 8b 00             	mov    (%rax),%rax
    2796:	48 89 45 c0          	mov    %rax,-0x40(%rbp)
    279a:	c7 45 90 ef be ed fe 	movl   $0xfeedbeef,-0x70(%rbp)
    27a1:	c7 45 98 b9 79 37 9e 	movl   $0x9e3779b9,-0x68(%rbp)
    27a8:	8b 45 98             	mov    -0x68(%rbp),%eax
    27ab:	89 45 94             	mov    %eax,-0x6c(%rbp)
    27ae:	48 8b 85 68 ff ff ff 	mov    -0x98(%rbp),%rax
    27b5:	89 45 9c             	mov    %eax,-0x64(%rbp)
    27b8:	e9 a0 01 00 00       	jmp    295d <map_put+0x7a8>
    27bd:	48 8b 45 c0          	mov    -0x40(%rbp),%rax
    27c1:	0f b6 00             	movzbl (%rax),%eax
    27c4:	0f b6 c0             	movzbl %al,%eax
    27c7:	48 8b 55 c0          	mov    -0x40(%rbp),%rdx
    27cb:	48 83 c2 01          	add    $0x1,%rdx
    27cf:	0f b6 12             	movzbl (%rdx),%edx
    27d2:	0f b6 d2             	movzbl %dl,%edx
    27d5:	c1 e2 08             	shl    $0x8,%edx
    27d8:	01 c2                	add    %eax,%edx
    27da:	48 8b 45 c0          	mov    -0x40(%rbp),%rax
    27de:	48 83 c0 02          	add    $0x2,%rax
    27e2:	0f b6 00             	movzbl (%rax),%eax
    27e5:	0f b6 c0             	movzbl %al,%eax
    27e8:	c1 e0 10             	shl    $0x10,%eax
    27eb:	01 c2                	add    %eax,%edx
    27ed:	48 8b 45 c0          	mov    -0x40(%rbp),%rax
    27f1:	48 83 c0 03          	add    $0x3,%rax
    27f5:	0f b6 00             	movzbl (%rax),%eax
    27f8:	0f b6 c0             	movzbl %al,%eax
    27fb:	c1 e0 18             	shl    $0x18,%eax
    27fe:	01 d0                	add    %edx,%eax
    2800:	01 45 94             	add    %eax,-0x6c(%rbp)
    2803:	48 8b 45 c0          	mov    -0x40(%rbp),%rax
    2807:	48 83 c0 04          	add    $0x4,%rax
    280b:	0f b6 00             	movzbl (%rax),%eax
    280e:	0f b6 c0             	movzbl %al,%eax
    2811:	48 8b 55 c0          	mov    -0x40(%rbp),%rdx
    2815:	48 83 c2 05          	add    $0x5,%rdx
    2819:	0f b6 12             	movzbl (%rdx),%edx
    281c:	0f b6 d2             	movzbl %dl,%edx
    281f:	c1 e2 08             	shl    $0x8,%edx
    2822:	01 c2                	add    %eax,%edx
    2824:	48 8b 45 c0          	mov    -0x40(%rbp),%rax
    2828:	48 83 c0 06          	add    $0x6,%rax
    282c:	0f b6 00             	movzbl (%rax),%eax
    282f:	0f b6 c0             	movzbl %al,%eax
    2832:	c1 e0 10             	shl    $0x10,%eax
    2835:	01 c2                	add    %eax,%edx
    2837:	48 8b 45 c0          	mov    -0x40(%rbp),%rax
    283b:	48 83 c0 07          	add    $0x7,%rax
    283f:	0f b6 00             	movzbl (%rax),%eax
    2842:	0f b6 c0             	movzbl %al,%eax
    2845:	c1 e0 18             	shl    $0x18,%eax
    2848:	01 d0                	add    %edx,%eax
    284a:	01 45 98             	add    %eax,-0x68(%rbp)
    284d:	48 8b 45 c0          	mov    -0x40(%rbp),%rax
    2851:	48 83 c0 08          	add    $0x8,%rax
    2855:	0f b6 00             	movzbl (%rax),%eax
    2858:	0f b6 c0             	movzbl %al,%eax
    285b:	48 8b 55 c0          	mov    -0x40(%rbp),%rdx
    285f:	48 83 c2 09          	add    $0x9,%rdx
    2863:	0f b6 12             	movzbl (%rdx),%edx
    2866:	0f b6 d2             	movzbl %dl,%edx
    2869:	c1 e2 08             	shl    $0x8,%edx
    286c:	01 c2                	add    %eax,%edx
    286e:	48 8b 45 c0          	mov    -0x40(%rbp),%rax
    2872:	48 83 c0 0a          	add    $0xa,%rax
    2876:	0f b6 00             	movzbl (%rax),%eax
    2879:	0f b6 c0             	movzbl %al,%eax
    287c:	c1 e0 10             	shl    $0x10,%eax
    287f:	01 c2                	add    %eax,%edx
    2881:	48 8b 45 c0          	mov    -0x40(%rbp),%rax
    2885:	48 83 c0 0b          	add    $0xb,%rax
    2889:	0f b6 00             	movzbl (%rax),%eax
    288c:	0f b6 c0             	movzbl %al,%eax
    288f:	c1 e0 18             	shl    $0x18,%eax
    2892:	01 d0                	add    %edx,%eax
    2894:	01 45 90             	add    %eax,-0x70(%rbp)
    2897:	8b 45 98             	mov    -0x68(%rbp),%eax
    289a:	29 45 94             	sub    %eax,-0x6c(%rbp)
    289d:	8b 45 90             	mov    -0x70(%rbp),%eax
    28a0:	29 45 94             	sub    %eax,-0x6c(%rbp)
    28a3:	8b 45 90             	mov    -0x70(%rbp),%eax
    28a6:	c1 e8 0d             	shr    $0xd,%eax
    28a9:	31 45 94             	xor    %eax,-0x6c(%rbp)
    28ac:	8b 45 90             	mov    -0x70(%rbp),%eax
    28af:	29 45 98             	sub    %eax,-0x68(%rbp)
    28b2:	8b 45 94             	mov    -0x6c(%rbp),%eax
    28b5:	29 45 98             	sub    %eax,-0x68(%rbp)
    28b8:	8b 45 94             	mov    -0x6c(%rbp),%eax
    28bb:	c1 e0 08             	shl    $0x8,%eax
    28be:	31 45 98             	xor    %eax,-0x68(%rbp)
    28c1:	8b 45 94             	mov    -0x6c(%rbp),%eax
    28c4:	29 45 90             	sub    %eax,-0x70(%rbp)
    28c7:	8b 45 98             	mov    -0x68(%rbp),%eax
    28ca:	29 45 90             	sub    %eax,-0x70(%rbp)
    28cd:	8b 45 98             	mov    -0x68(%rbp),%eax
    28d0:	c1 e8 0d             	shr    $0xd,%eax
    28d3:	31 45 90             	xor    %eax,-0x70(%rbp)
    28d6:	8b 45 98             	mov    -0x68(%rbp),%eax
    28d9:	29 45 94             	sub    %eax,-0x6c(%rbp)
    28dc:	8b 45 90             	mov    -0x70(%rbp),%eax
    28df:	29 45 94             	sub    %eax,-0x6c(%rbp)
    28e2:	8b 45 90             	mov    -0x70(%rbp),%eax
    28e5:	c1 e8 0c             	shr    $0xc,%eax
    28e8:	31 45 94             	xor    %eax,-0x6c(%rbp)
    28eb:	8b 45 90             	mov    -0x70(%rbp),%eax
    28ee:	29 45 98             	sub    %eax,-0x68(%rbp)
    28f1:	8b 45 94             	mov    -0x6c(%rbp),%eax
    28f4:	29 45 98             	sub    %eax,-0x68(%rbp)
    28f7:	8b 45 94             	mov    -0x6c(%rbp),%eax
    28fa:	c1 e0 10             	shl    $0x10,%eax
    28fd:	31 45 98             	xor    %eax,-0x68(%rbp)
    2900:	8b 45 94             	mov    -0x6c(%rbp),%eax
    2903:	29 45 90             	sub    %eax,-0x70(%rbp)
    2906:	8b 45 98             	mov    -0x68(%rbp),%eax
    2909:	29 45 90             	sub    %eax,-0x70(%rbp)
    290c:	8b 45 98             	mov    -0x68(%rbp),%eax
    290f:	c1 e8 05             	shr    $0x5,%eax
    2912:	31 45 90             	xor    %eax,-0x70(%rbp)
    2915:	8b 45 98             	mov    -0x68(%rbp),%eax
    2918:	29 45 94             	sub    %eax,-0x6c(%rbp)
    291b:	8b 45 90             	mov    -0x70(%rbp),%eax
    291e:	29 45 94             	sub    %eax,-0x6c(%rbp)
    2921:	8b 45 90             	mov    -0x70(%rbp),%eax
    2924:	c1 e8 03             	shr    $0x3,%eax
    2927:	31 45 94             	xor    %eax,-0x6c(%rbp)
    292a:	8b 45 90             	mov    -0x70(%rbp),%eax
    292d:	29 45 98             	sub    %eax,-0x68(%rbp)
    2930:	8b 45 94             	mov    -0x6c(%rbp),%eax
    2933:	29 45 98             	sub    %eax,-0x68(%rbp)
    2936:	8b 45 94             	mov    -0x6c(%rbp),%eax
    2939:	c1 e0 0a             	shl    $0xa,%eax
    293c:	31 45 98             	xor    %eax,-0x68(%rbp)
    293f:	8b 45 94             	mov    -0x6c(%rbp),%eax
    2942:	29 45 90             	sub    %eax,-0x70(%rbp)
    2945:	8b 45 98             	mov    -0x68(%rbp),%eax
    2948:	29 45 90             	sub    %eax,-0x70(%rbp)
    294b:	8b 45 98             	mov    -0x68(%rbp),%eax
    294e:	c1 e8 0f             	shr    $0xf,%eax
    2951:	31 45 90             	xor    %eax,-0x70(%rbp)
    2954:	48 83 45 c0 0c       	addq   $0xc,-0x40(%rbp)
    2959:	83 6d 9c 0c          	subl   $0xc,-0x64(%rbp)
    295d:	83 7d 9c 0b          	cmpl   $0xb,-0x64(%rbp)
    2961:	0f 87 56 fe ff ff    	ja     27bd <map_put+0x608>
    2967:	48 8b 85 68 ff ff ff 	mov    -0x98(%rbp),%rax
    296e:	01 45 90             	add    %eax,-0x70(%rbp)
    2971:	83 7d 9c 0b          	cmpl   $0xb,-0x64(%rbp)
    2975:	0f 87 f6 00 00 00    	ja     2a71 <map_put+0x8bc>
    297b:	8b 45 9c             	mov    -0x64(%rbp),%eax
    297e:	48 8d 14 85 00 00 00 	lea    0x0(,%rax,4),%rdx
    2985:	00 
    2986:	48 8d 05 bf 28 00 00 	lea    0x28bf(%rip),%rax        # 524c <_IO_stdin_used+0x24c>
    298d:	8b 04 02             	mov    (%rdx,%rax,1),%eax
    2990:	48 98                	cltq
    2992:	48 8d 15 b3 28 00 00 	lea    0x28b3(%rip),%rdx        # 524c <_IO_stdin_used+0x24c>
    2999:	48 01 d0             	add    %rdx,%rax
    299c:	3e ff e0             	notrack jmp *%rax
    299f:	48 8b 45 c0          	mov    -0x40(%rbp),%rax
    29a3:	48 83 c0 0a          	add    $0xa,%rax
    29a7:	0f b6 00             	movzbl (%rax),%eax
    29aa:	0f b6 c0             	movzbl %al,%eax
    29ad:	c1 e0 18             	shl    $0x18,%eax
    29b0:	01 45 90             	add    %eax,-0x70(%rbp)
    29b3:	48 8b 45 c0          	mov    -0x40(%rbp),%rax
    29b7:	48 83 c0 09          	add    $0x9,%rax
    29bb:	0f b6 00             	movzbl (%rax),%eax
    29be:	0f b6 c0             	movzbl %al,%eax
    29c1:	c1 e0 10             	shl    $0x10,%eax
    29c4:	01 45 90             	add    %eax,-0x70(%rbp)
    29c7:	48 8b 45 c0          	mov    -0x40(%rbp),%rax
    29cb:	48 83 c0 08          	add    $0x8,%rax
    29cf:	0f b6 00             	movzbl (%rax),%eax
    29d2:	0f b6 c0             	movzbl %al,%eax
    29d5:	c1 e0 08             	shl    $0x8,%eax
    29d8:	01 45 90             	add    %eax,-0x70(%rbp)
    29db:	48 8b 45 c0          	mov    -0x40(%rbp),%rax
    29df:	48 83 c0 07          	add    $0x7,%rax
    29e3:	0f b6 00             	movzbl (%rax),%eax
    29e6:	0f b6 c0             	movzbl %al,%eax
    29e9:	c1 e0 18             	shl    $0x18,%eax
    29ec:	01 45 98             	add    %eax,-0x68(%rbp)
    29ef:	48 8b 45 c0          	mov    -0x40(%rbp),%rax
    29f3:	48 83 c0 06          	add    $0x6,%rax
    29f7:	0f b6 00             	movzbl (%rax),%eax
    29fa:	0f b6 c0             	movzbl %al,%eax
    29fd:	c1 e0 10             	shl    $0x10,%eax
    2a00:	01 45 98             	add    %eax,-0x68(%rbp)
    2a03:	48 8b 45 c0          	mov    -0x40(%rbp),%rax
    2a07:	48 83 c0 05          	add    $0x5,%rax
    2a0b:	0f b6 00             	movzbl (%rax),%eax
    2a0e:	0f b6 c0             	movzbl %al,%eax
    2a11:	c1 e0 08             	shl    $0x8,%eax
    2a14:	01 45 98             	add    %eax,-0x68(%rbp)
    2a17:	48 8b 45 c0          	mov    -0x40(%rbp),%rax
    2a1b:	48 83 c0 04          	add    $0x4,%rax
    2a1f:	0f b6 00             	movzbl (%rax),%eax
    2a22:	0f b6 c0             	movzbl %al,%eax
    2a25:	01 45 98             	add    %eax,-0x68(%rbp)
    2a28:	48 8b 45 c0          	mov    -0x40(%rbp),%rax
    2a2c:	48 83 c0 03          	add    $0x3,%rax
    2a30:	0f b6 00             	movzbl (%rax),%eax
    2a33:	0f b6 c0             	movzbl %al,%eax
    2a36:	c1 e0 18             	shl    $0x18,%eax
    2a39:	01 45 94             	add    %eax,-0x6c(%rbp)
    2a3c:	48 8b 45 c0          	mov    -0x40(%rbp),%rax
    2a40:	48 83 c0 02          	add    $0x2,%rax
    2a44:	0f b6 00             	movzbl (%rax),%eax
    2a47:	0f b6 c0             	movzbl %al,%eax
    2a4a:	c1 e0 10             	shl    $0x10,%eax
    2a4d:	01 45 94             	add    %eax,-0x6c(%rbp)
    2a50:	48 8b 45 c0          	mov    -0x40(%rbp),%rax
    2a54:	48 83 c0 01          	add    $0x1,%rax
    2a58:	0f b6 00             	movzbl (%rax),%eax
    2a5b:	0f b6 c0             	movzbl %al,%eax
    2a5e:	c1 e0 08             	shl    $0x8,%eax
    2a61:	01 45 94             	add    %eax,-0x6c(%rbp)
    2a64:	48 8b 45 c0          	mov    -0x40(%rbp),%rax
    2a68:	0f b6 00             	movzbl (%rax),%eax
    2a6b:	0f b6 c0             	movzbl %al,%eax
    2a6e:	01 45 94             	add    %eax,-0x6c(%rbp)
    2a71:	8b 45 98             	mov    -0x68(%rbp),%eax
    2a74:	29 45 94             	sub    %eax,-0x6c(%rbp)
    2a77:	8b 45 90             	mov    -0x70(%rbp),%eax
    2a7a:	29 45 94             	sub    %eax,-0x6c(%rbp)
    2a7d:	8b 45 90             	mov    -0x70(%rbp),%eax
    2a80:	c1 e8 0d             	shr    $0xd,%eax
    2a83:	31 45 94             	xor    %eax,-0x6c(%rbp)
    2a86:	8b 45 90             	mov    -0x70(%rbp),%eax
    2a89:	29 45 98             	sub    %eax,-0x68(%rbp)
    2a8c:	8b 45 94             	mov    -0x6c(%rbp),%eax
    2a8f:	29 45 98             	sub    %eax,-0x68(%rbp)
    2a92:	8b 45 94             	mov    -0x6c(%rbp),%eax
    2a95:	c1 e0 08             	shl    $0x8,%eax
    2a98:	31 45 98             	xor    %eax,-0x68(%rbp)
    2a9b:	8b 45 94             	mov    -0x6c(%rbp),%eax
    2a9e:	29 45 90             	sub    %eax,-0x70(%rbp)
    2aa1:	8b 45 98             	mov    -0x68(%rbp),%eax
    2aa4:	29 45 90             	sub    %eax,-0x70(%rbp)
    2aa7:	8b 45 98             	mov    -0x68(%rbp),%eax
    2aaa:	c1 e8 0d             	shr    $0xd,%eax
    2aad:	31 45 90             	xor    %eax,-0x70(%rbp)
    2ab0:	8b 45 98             	mov    -0x68(%rbp),%eax
    2ab3:	29 45 94             	sub    %eax,-0x6c(%rbp)
    2ab6:	8b 45 90             	mov    -0x70(%rbp),%eax
    2ab9:	29 45 94             	sub    %eax,-0x6c(%rbp)
    2abc:	8b 45 90             	mov    -0x70(%rbp),%eax
    2abf:	c1 e8 0c             	shr    $0xc,%eax
    2ac2:	31 45 94             	xor    %eax,-0x6c(%rbp)
    2ac5:	8b 45 90             	mov    -0x70(%rbp),%eax
    2ac8:	29 45 98             	sub    %eax,-0x68(%rbp)
    2acb:	8b 45 94             	mov    -0x6c(%rbp),%eax
    2ace:	29 45 98             	sub    %eax,-0x68(%rbp)
    2ad1:	8b 45 94             	mov    -0x6c(%rbp),%eax
    2ad4:	c1 e0 10             	shl    $0x10,%eax
    2ad7:	31 45 98             	xor    %eax,-0x68(%rbp)
    2ada:	8b 45 94             	mov    -0x6c(%rbp),%eax
    2add:	29 45 90             	sub    %eax,-0x70(%rbp)
    2ae0:	8b 45 98             	mov    -0x68(%rbp),%eax
    2ae3:	29 45 90             	sub    %eax,-0x70(%rbp)
    2ae6:	8b 45 98             	mov    -0x68(%rbp),%eax
    2ae9:	c1 e8 05             	shr    $0x5,%eax
    2aec:	31 45 90             	xor    %eax,-0x70(%rbp)
    2aef:	8b 45 98             	mov    -0x68(%rbp),%eax
    2af2:	29 45 94             	sub    %eax,-0x6c(%rbp)
    2af5:	8b 45 90             	mov    -0x70(%rbp),%eax
    2af8:	29 45 94             	sub    %eax,-0x6c(%rbp)
    2afb:	8b 45 90             	mov    -0x70(%rbp),%eax
    2afe:	c1 e8 03             	shr    $0x3,%eax
    2b01:	31 45 94             	xor    %eax,-0x6c(%rbp)
    2b04:	8b 45 90             	mov    -0x70(%rbp),%eax
    2b07:	29 45 98             	sub    %eax,-0x68(%rbp)
    2b0a:	8b 45 94             	mov    -0x6c(%rbp),%eax
    2b0d:	29 45 98             	sub    %eax,-0x68(%rbp)
    2b10:	8b 45 94             	mov    -0x6c(%rbp),%eax
    2b13:	c1 e0 0a             	shl    $0xa,%eax
    2b16:	31 45 98             	xor    %eax,-0x68(%rbp)
    2b19:	8b 45 94             	mov    -0x6c(%rbp),%eax
    2b1c:	29 45 90             	sub    %eax,-0x70(%rbp)
    2b1f:	8b 45 98             	mov    -0x68(%rbp),%eax
    2b22:	29 45 90             	sub    %eax,-0x70(%rbp)
    2b25:	8b 45 98             	mov    -0x68(%rbp),%eax
    2b28:	c1 e8 0f             	shr    $0xf,%eax
    2b2b:	31 45 90             	xor    %eax,-0x70(%rbp)
    2b2e:	48 8b 45 b0          	mov    -0x50(%rbp),%rax
    2b32:	8b 55 90             	mov    -0x70(%rbp),%edx
    2b35:	89 50 54             	mov    %edx,0x54(%rax)
    2b38:	48 8b 45 b0          	mov    -0x50(%rbp),%rax
    2b3c:	48 8b 10             	mov    (%rax),%rdx
    2b3f:	48 8b 45 b0          	mov    -0x50(%rbp),%rax
    2b43:	48 89 50 48          	mov    %rdx,0x48(%rax)
    2b47:	48 8b 85 68 ff ff ff 	mov    -0x98(%rbp),%rax
    2b4e:	89 c2                	mov    %eax,%edx
    2b50:	48 8b 45 b0          	mov    -0x50(%rbp),%rax
    2b54:	89 50 50             	mov    %edx,0x50(%rax)
    2b57:	48 8b 85 78 ff ff ff 	mov    -0x88(%rbp),%rax
    2b5e:	48 8b 00             	mov    (%rax),%rax
    2b61:	48 8b 00             	mov    (%rax),%rax
    2b64:	48 85 c0             	test   %rax,%rax
    2b67:	0f 85 11 01 00 00    	jne    2c7e <map_put+0xac9>
    2b6d:	48 8b 45 b0          	mov    -0x50(%rbp),%rax
    2b71:	48 c7 40 30 00 00 00 	movq   $0x0,0x30(%rax)
    2b78:	00 
    2b79:	48 8b 45 b0          	mov    -0x50(%rbp),%rax
    2b7d:	48 c7 40 28 00 00 00 	movq   $0x0,0x28(%rax)
    2b84:	00 
    2b85:	bf 40 00 00 00       	mov    $0x40,%edi
    2b8a:	e8 21 e7 ff ff       	call   12b0 <malloc@plt>
    2b8f:	48 89 c2             	mov    %rax,%rdx
    2b92:	48 8b 45 b0          	mov    -0x50(%rbp),%rax
    2b96:	48 89 50 20          	mov    %rdx,0x20(%rax)
    2b9a:	48 8b 45 b0          	mov    -0x50(%rbp),%rax
    2b9e:	48 8b 40 20          	mov    0x20(%rax),%rax
    2ba2:	48 85 c0             	test   %rax,%rax
    2ba5:	75 0a                	jne    2bb1 <map_put+0x9fc>
    2ba7:	bf ff ff ff ff       	mov    $0xffffffff,%edi
    2bac:	e8 3f e7 ff ff       	call   12f0 <exit@plt>
    2bb1:	48 8b 45 b0          	mov    -0x50(%rbp),%rax
    2bb5:	48 8b 40 20          	mov    0x20(%rax),%rax
    2bb9:	ba 40 00 00 00       	mov    $0x40,%edx
    2bbe:	be 00 00 00 00       	mov    $0x0,%esi
    2bc3:	48 89 c7             	mov    %rax,%rdi
    2bc6:	e8 75 e6 ff ff       	call   1240 <memset@plt>
    2bcb:	48 8b 45 b0          	mov    -0x50(%rbp),%rax
    2bcf:	48 8b 40 20          	mov    0x20(%rax),%rax
    2bd3:	48 8b 55 b0          	mov    -0x50(%rbp),%rdx
    2bd7:	48 83 c2 20          	add    $0x20,%rdx
    2bdb:	48 89 50 18          	mov    %rdx,0x18(%rax)
    2bdf:	48 8b 45 b0          	mov    -0x50(%rbp),%rax
    2be3:	48 8b 40 20          	mov    0x20(%rax),%rax
    2be7:	c7 40 08 20 00 00 00 	movl   $0x20,0x8(%rax)
    2bee:	48 8b 45 b0          	mov    -0x50(%rbp),%rax
    2bf2:	48 8b 40 20          	mov    0x20(%rax),%rax
    2bf6:	c7 40 0c 05 00 00 00 	movl   $0x5,0xc(%rax)
    2bfd:	48 8b 45 b0          	mov    -0x50(%rbp),%rax
    2c01:	48 8b 40 20          	mov    0x20(%rax),%rax
    2c05:	48 c7 40 20 20 00 00 	movq   $0x20,0x20(%rax)
    2c0c:	00 
    2c0d:	48 8b 45 b0          	mov    -0x50(%rbp),%rax
    2c11:	48 8b 58 20          	mov    0x20(%rax),%rbx
    2c15:	bf 00 02 00 00       	mov    $0x200,%edi
    2c1a:	e8 91 e6 ff ff       	call   12b0 <malloc@plt>
    2c1f:	48 89 03             	mov    %rax,(%rbx)
    2c22:	48 8b 45 b0          	mov    -0x50(%rbp),%rax
    2c26:	48 8b 40 20          	mov    0x20(%rax),%rax
    2c2a:	c7 40 38 e1 1f 11 a0 	movl   $0xa0111fe1,0x38(%rax)
    2c31:	48 8b 45 b0          	mov    -0x50(%rbp),%rax
    2c35:	48 8b 40 20          	mov    0x20(%rax),%rax
    2c39:	48 8b 00             	mov    (%rax),%rax
    2c3c:	48 85 c0             	test   %rax,%rax
    2c3f:	75 0a                	jne    2c4b <map_put+0xa96>
    2c41:	bf ff ff ff ff       	mov    $0xffffffff,%edi
    2c46:	e8 a5 e6 ff ff       	call   12f0 <exit@plt>
    2c4b:	48 8b 45 b0          	mov    -0x50(%rbp),%rax
    2c4f:	48 8b 40 20          	mov    0x20(%rax),%rax
    2c53:	48 8b 00             	mov    (%rax),%rax
    2c56:	ba 00 02 00 00       	mov    $0x200,%edx
    2c5b:	be 00 00 00 00       	mov    $0x0,%esi
    2c60:	48 89 c7             	mov    %rax,%rdi
    2c63:	e8 d8 e5 ff ff       	call   1240 <memset@plt>
    2c68:	48 8b 85 78 ff ff ff 	mov    -0x88(%rbp),%rax
    2c6f:	48 8b 00             	mov    (%rax),%rax
    2c72:	48 8b 55 b0          	mov    -0x50(%rbp),%rdx
    2c76:	48 89 10             	mov    %rdx,(%rax)
    2c79:	e9 97 00 00 00       	jmp    2d15 <map_put+0xb60>
    2c7e:	48 8b 85 78 ff ff ff 	mov    -0x88(%rbp),%rax
    2c85:	48 8b 00             	mov    (%rax),%rax
    2c88:	48 8b 00             	mov    (%rax),%rax
    2c8b:	48 8b 50 20          	mov    0x20(%rax),%rdx
    2c8f:	48 8b 45 b0          	mov    -0x50(%rbp),%rax
    2c93:	48 89 50 20          	mov    %rdx,0x20(%rax)
    2c97:	48 8b 45 b0          	mov    -0x50(%rbp),%rax
    2c9b:	48 c7 40 30 00 00 00 	movq   $0x0,0x30(%rax)
    2ca2:	00 
    2ca3:	48 8b 85 78 ff ff ff 	mov    -0x88(%rbp),%rax
    2caa:	48 8b 00             	mov    (%rax),%rax
    2cad:	48 8b 00             	mov    (%rax),%rax
    2cb0:	48 8b 40 20          	mov    0x20(%rax),%rax
    2cb4:	48 8b 50 18          	mov    0x18(%rax),%rdx
    2cb8:	48 8b 85 78 ff ff ff 	mov    -0x88(%rbp),%rax
    2cbf:	48 8b 00             	mov    (%rax),%rax
    2cc2:	48 8b 00             	mov    (%rax),%rax
    2cc5:	48 8b 40 20          	mov    0x20(%rax),%rax
    2cc9:	48 8b 40 20          	mov    0x20(%rax),%rax
    2ccd:	48 f7 d8             	neg    %rax
    2cd0:	48 01 c2             	add    %rax,%rdx
    2cd3:	48 8b 45 b0          	mov    -0x50(%rbp),%rax
    2cd7:	48 89 50 28          	mov    %rdx,0x28(%rax)
    2cdb:	48 8b 85 78 ff ff ff 	mov    -0x88(%rbp),%rax
    2ce2:	48 8b 00             	mov    (%rax),%rax
    2ce5:	48 8b 00             	mov    (%rax),%rax
    2ce8:	48 8b 40 20          	mov    0x20(%rax),%rax
    2cec:	48 8b 40 18          	mov    0x18(%rax),%rax
    2cf0:	48 8b 55 b0          	mov    -0x50(%rbp),%rdx
    2cf4:	48 89 50 10          	mov    %rdx,0x10(%rax)
    2cf8:	48 8b 85 78 ff ff ff 	mov    -0x88(%rbp),%rax
    2cff:	48 8b 00             	mov    (%rax),%rax
    2d02:	48 8b 00             	mov    (%rax),%rax
    2d05:	48 8b 40 20          	mov    0x20(%rax),%rax
    2d09:	48 8b 55 b0          	mov    -0x50(%rbp),%rdx
    2d0d:	48 83 c2 20          	add    $0x20,%rdx
    2d11:	48 89 50 18          	mov    %rdx,0x18(%rax)
    2d15:	48 8b 85 78 ff ff ff 	mov    -0x88(%rbp),%rax
    2d1c:	48 8b 00             	mov    (%rax),%rax
    2d1f:	48 8b 00             	mov    (%rax),%rax
    2d22:	48 8b 40 20          	mov    0x20(%rax),%rax
    2d26:	8b 50 10             	mov    0x10(%rax),%edx
    2d29:	83 c2 01             	add    $0x1,%edx
    2d2c:	89 50 10             	mov    %edx,0x10(%rax)
    2d2f:	48 8b 85 78 ff ff ff 	mov    -0x88(%rbp),%rax
    2d36:	48 8b 00             	mov    (%rax),%rax
    2d39:	48 8b 00             	mov    (%rax),%rax
    2d3c:	48 8b 40 20          	mov    0x20(%rax),%rax
    2d40:	8b 40 08             	mov    0x8(%rax),%eax
    2d43:	83 e8 01             	sub    $0x1,%eax
    2d46:	23 45 90             	and    -0x70(%rbp),%eax
    2d49:	89 45 a8             	mov    %eax,-0x58(%rbp)
    2d4c:	48 8b 85 78 ff ff ff 	mov    -0x88(%rbp),%rax
    2d53:	48 8b 00             	mov    (%rax),%rax
    2d56:	48 8b 00             	mov    (%rax),%rax
    2d59:	48 8b 40 20          	mov    0x20(%rax),%rax
    2d5d:	48 8b 00             	mov    (%rax),%rax
    2d60:	8b 55 a8             	mov    -0x58(%rbp),%edx
    2d63:	48 c1 e2 04          	shl    $0x4,%rdx
    2d67:	48 01 d0             	add    %rdx,%rax
    2d6a:	48 89 45 d0          	mov    %rax,-0x30(%rbp)
    2d6e:	48 8b 45 d0          	mov    -0x30(%rbp),%rax
    2d72:	8b 40 08             	mov    0x8(%rax),%eax
    2d75:	8d 50 01             	lea    0x1(%rax),%edx
    2d78:	48 8b 45 d0          	mov    -0x30(%rbp),%rax
    2d7c:	89 50 08             	mov    %edx,0x8(%rax)
    2d7f:	48 8b 45 d0          	mov    -0x30(%rbp),%rax
    2d83:	48 8b 10             	mov    (%rax),%rdx
    2d86:	48 8b 45 b0          	mov    -0x50(%rbp),%rax
    2d8a:	48 89 50 40          	mov    %rdx,0x40(%rax)
    2d8e:	48 8b 45 b0          	mov    -0x50(%rbp),%rax
    2d92:	48 c7 40 38 00 00 00 	movq   $0x0,0x38(%rax)
    2d99:	00 
    2d9a:	48 8b 45 d0          	mov    -0x30(%rbp),%rax
    2d9e:	48 8b 00             	mov    (%rax),%rax
    2da1:	48 85 c0             	test   %rax,%rax
    2da4:	74 13                	je     2db9 <map_put+0xc04>
    2da6:	48 8b 45 d0          	mov    -0x30(%rbp),%rax
    2daa:	48 8b 00             	mov    (%rax),%rax
    2dad:	48 8b 55 b0          	mov    -0x50(%rbp),%rdx
    2db1:	48 83 c2 20          	add    $0x20,%rdx
    2db5:	48 89 50 18          	mov    %rdx,0x18(%rax)
    2db9:	48 8b 45 b0          	mov    -0x50(%rbp),%rax
    2dbd:	48 8d 50 20          	lea    0x20(%rax),%rdx
    2dc1:	48 8b 45 d0          	mov    -0x30(%rbp),%rax
    2dc5:	48 89 10             	mov    %rdx,(%rax)
    2dc8:	48 8b 45 d0          	mov    -0x30(%rbp),%rax
    2dcc:	8b 48 08             	mov    0x8(%rax),%ecx
    2dcf:	48 8b 45 d0          	mov    -0x30(%rbp),%rax
    2dd3:	8b 40 0c             	mov    0xc(%rax),%eax
    2dd6:	8d 50 01             	lea    0x1(%rax),%edx
    2dd9:	89 d0                	mov    %edx,%eax
    2ddb:	c1 e0 02             	shl    $0x2,%eax
    2dde:	01 d0                	add    %edx,%eax
    2de0:	01 c0                	add    %eax,%eax
    2de2:	39 c1                	cmp    %eax,%ecx
    2de4:	0f 82 0f 03 00 00    	jb     30f9 <map_put+0xf44>
    2dea:	48 8b 45 b0          	mov    -0x50(%rbp),%rax
    2dee:	48 8b 40 20          	mov    0x20(%rax),%rax
    2df2:	8b 40 34             	mov    0x34(%rax),%eax
    2df5:	85 c0                	test   %eax,%eax
    2df7:	0f 85 fc 02 00 00    	jne    30f9 <map_put+0xf44>
    2dfd:	48 8b 45 b0          	mov    -0x50(%rbp),%rax
    2e01:	48 8b 40 20          	mov    0x20(%rax),%rax
    2e05:	8b 40 08             	mov    0x8(%rax),%eax
    2e08:	89 c0                	mov    %eax,%eax
    2e0a:	48 c1 e0 05          	shl    $0x5,%rax
    2e0e:	48 89 c7             	mov    %rax,%rdi
    2e11:	e8 9a e4 ff ff       	call   12b0 <malloc@plt>
    2e16:	48 89 45 d8          	mov    %rax,-0x28(%rbp)
    2e1a:	48 83 7d d8 00       	cmpq   $0x0,-0x28(%rbp)
    2e1f:	75 0a                	jne    2e2b <map_put+0xc76>
    2e21:	bf ff ff ff ff       	mov    $0xffffffff,%edi
    2e26:	e8 c5 e4 ff ff       	call   12f0 <exit@plt>
    2e2b:	48 8b 45 b0          	mov    -0x50(%rbp),%rax
    2e2f:	48 8b 40 20          	mov    0x20(%rax),%rax
    2e33:	8b 40 08             	mov    0x8(%rax),%eax
    2e36:	89 c0                	mov    %eax,%eax
    2e38:	48 c1 e0 05          	shl    $0x5,%rax
    2e3c:	48 89 c2             	mov    %rax,%rdx
    2e3f:	48 8b 45 d8          	mov    -0x28(%rbp),%rax
    2e43:	be 00 00 00 00       	mov    $0x0,%esi
    2e48:	48 89 c7             	mov    %rax,%rdi
    2e4b:	e8 f0 e3 ff ff       	call   1240 <memset@plt>
    2e50:	48 8b 45 b0          	mov    -0x50(%rbp),%rax
    2e54:	48 8b 40 20          	mov    0x20(%rax),%rax
    2e58:	8b 50 10             	mov    0x10(%rax),%edx
    2e5b:	48 8b 45 b0          	mov    -0x50(%rbp),%rax
    2e5f:	48 8b 40 20          	mov    0x20(%rax),%rax
    2e63:	8b 40 0c             	mov    0xc(%rax),%eax
    2e66:	83 c0 01             	add    $0x1,%eax
    2e69:	89 c1                	mov    %eax,%ecx
    2e6b:	d3 ea                	shr    %cl,%edx
    2e6d:	89 d1                	mov    %edx,%ecx
    2e6f:	48 8b 45 b0          	mov    -0x50(%rbp),%rax
    2e73:	48 8b 40 20          	mov    0x20(%rax),%rax
    2e77:	8b 50 10             	mov    0x10(%rax),%edx
    2e7a:	48 8b 45 b0          	mov    -0x50(%rbp),%rax
    2e7e:	48 8b 40 20          	mov    0x20(%rax),%rax
    2e82:	8b 40 08             	mov    0x8(%rax),%eax
    2e85:	01 c0                	add    %eax,%eax
    2e87:	83 e8 01             	sub    $0x1,%eax
    2e8a:	21 d0                	and    %edx,%eax
    2e8c:	85 c0                	test   %eax,%eax
    2e8e:	74 07                	je     2e97 <map_put+0xce2>
    2e90:	ba 01 00 00 00       	mov    $0x1,%edx
    2e95:	eb 05                	jmp    2e9c <map_put+0xce7>
    2e97:	ba 00 00 00 00       	mov    $0x0,%edx
    2e9c:	48 8b 45 b0          	mov    -0x50(%rbp),%rax
    2ea0:	48 8b 40 20          	mov    0x20(%rax),%rax
    2ea4:	01 ca                	add    %ecx,%edx
    2ea6:	89 50 28             	mov    %edx,0x28(%rax)
    2ea9:	48 8b 45 b0          	mov    -0x50(%rbp),%rax
    2ead:	48 8b 40 20          	mov    0x20(%rax),%rax
    2eb1:	c7 40 2c 00 00 00 00 	movl   $0x0,0x2c(%rax)
    2eb8:	c7 45 a0 00 00 00 00 	movl   $0x0,-0x60(%rbp)
    2ebf:	e9 1f 01 00 00       	jmp    2fe3 <map_put+0xe2e>
    2ec4:	48 8b 45 b0          	mov    -0x50(%rbp),%rax
    2ec8:	48 8b 40 20          	mov    0x20(%rax),%rax
    2ecc:	48 8b 00             	mov    (%rax),%rax
    2ecf:	8b 55 a0             	mov    -0x60(%rbp),%edx
    2ed2:	48 c1 e2 04          	shl    $0x4,%rdx
    2ed6:	48 01 d0             	add    %rdx,%rax
    2ed9:	48 8b 00             	mov    (%rax),%rax
    2edc:	48 89 45 c8          	mov    %rax,-0x38(%rbp)
    2ee0:	e9 ef 00 00 00       	jmp    2fd4 <map_put+0xe1f>
    2ee5:	48 8b 45 c8          	mov    -0x38(%rbp),%rax
    2ee9:	48 8b 40 20          	mov    0x20(%rax),%rax
    2eed:	48 89 45 e0          	mov    %rax,-0x20(%rbp)
    2ef1:	48 8b 45 c8          	mov    -0x38(%rbp),%rax
    2ef5:	8b 50 34             	mov    0x34(%rax),%edx
    2ef8:	48 8b 45 b0          	mov    -0x50(%rbp),%rax
    2efc:	48 8b 40 20          	mov    0x20(%rax),%rax
    2f00:	8b 40 08             	mov    0x8(%rax),%eax
    2f03:	01 c0                	add    %eax,%eax
    2f05:	83 e8 01             	sub    $0x1,%eax
    2f08:	21 d0                	and    %edx,%eax
    2f0a:	89 45 ac             	mov    %eax,-0x54(%rbp)
    2f0d:	8b 45 ac             	mov    -0x54(%rbp),%eax
    2f10:	48 c1 e0 04          	shl    $0x4,%rax
    2f14:	48 89 c2             	mov    %rax,%rdx
    2f17:	48 8b 45 d8          	mov    -0x28(%rbp),%rax
    2f1b:	48 01 d0             	add    %rdx,%rax
    2f1e:	48 89 45 e8          	mov    %rax,-0x18(%rbp)
    2f22:	48 8b 45 e8          	mov    -0x18(%rbp),%rax
    2f26:	8b 40 08             	mov    0x8(%rax),%eax
    2f29:	8d 50 01             	lea    0x1(%rax),%edx
    2f2c:	48 8b 45 e8          	mov    -0x18(%rbp),%rax
    2f30:	89 50 08             	mov    %edx,0x8(%rax)
    2f33:	48 8b 45 e8          	mov    -0x18(%rbp),%rax
    2f37:	8b 40 08             	mov    0x8(%rax),%eax
    2f3a:	48 8b 55 b0          	mov    -0x50(%rbp),%rdx
    2f3e:	48 8b 52 20          	mov    0x20(%rdx),%rdx
    2f42:	8b 52 28             	mov    0x28(%rdx),%edx
    2f45:	39 c2                	cmp    %eax,%edx
    2f47:	73 42                	jae    2f8b <map_put+0xdd6>
    2f49:	48 8b 45 b0          	mov    -0x50(%rbp),%rax
    2f4d:	48 8b 40 20          	mov    0x20(%rax),%rax
    2f51:	8b 50 2c             	mov    0x2c(%rax),%edx
    2f54:	83 c2 01             	add    $0x1,%edx
    2f57:	89 50 2c             	mov    %edx,0x2c(%rax)
    2f5a:	48 8b 45 e8          	mov    -0x18(%rbp),%rax
    2f5e:	8b 40 08             	mov    0x8(%rax),%eax
    2f61:	48 8b 55 e8          	mov    -0x18(%rbp),%rdx
    2f65:	8b 4a 0c             	mov    0xc(%rdx),%ecx
    2f68:	48 8b 55 b0          	mov    -0x50(%rbp),%rdx
    2f6c:	48 8b 52 20          	mov    0x20(%rdx),%rdx
    2f70:	8b 52 28             	mov    0x28(%rdx),%edx
    2f73:	0f af d1             	imul   %ecx,%edx
    2f76:	39 c2                	cmp    %eax,%edx
    2f78:	73 11                	jae    2f8b <map_put+0xdd6>
    2f7a:	48 8b 45 e8          	mov    -0x18(%rbp),%rax
    2f7e:	8b 40 0c             	mov    0xc(%rax),%eax
    2f81:	8d 50 01             	lea    0x1(%rax),%edx
    2f84:	48 8b 45 e8          	mov    -0x18(%rbp),%rax
    2f88:	89 50 0c             	mov    %edx,0xc(%rax)
    2f8b:	48 8b 45 c8          	mov    -0x38(%rbp),%rax
    2f8f:	48 c7 40 18 00 00 00 	movq   $0x0,0x18(%rax)
    2f96:	00 
    2f97:	48 8b 45 e8          	mov    -0x18(%rbp),%rax
    2f9b:	48 8b 10             	mov    (%rax),%rdx
    2f9e:	48 8b 45 c8          	mov    -0x38(%rbp),%rax
    2fa2:	48 89 50 20          	mov    %rdx,0x20(%rax)
    2fa6:	48 8b 45 e8          	mov    -0x18(%rbp),%rax
    2faa:	48 8b 00             	mov    (%rax),%rax
    2fad:	48 85 c0             	test   %rax,%rax
    2fb0:	74 0f                	je     2fc1 <map_put+0xe0c>
    2fb2:	48 8b 45 e8          	mov    -0x18(%rbp),%rax
    2fb6:	48 8b 00             	mov    (%rax),%rax
    2fb9:	48 8b 55 c8          	mov    -0x38(%rbp),%rdx
    2fbd:	48 89 50 18          	mov    %rdx,0x18(%rax)
    2fc1:	48 8b 45 e8          	mov    -0x18(%rbp),%rax
    2fc5:	48 8b 55 c8          	mov    -0x38(%rbp),%rdx
    2fc9:	48 89 10             	mov    %rdx,(%rax)
    2fcc:	48 8b 45 e0          	mov    -0x20(%rbp),%rax
    2fd0:	48 89 45 c8          	mov    %rax,-0x38(%rbp)
    2fd4:	48 83 7d c8 00       	cmpq   $0x0,-0x38(%rbp)
    2fd9:	0f 85 06 ff ff ff    	jne    2ee5 <map_put+0xd30>
    2fdf:	83 45 a0 01          	addl   $0x1,-0x60(%rbp)
    2fe3:	48 8b 45 b0          	mov    -0x50(%rbp),%rax
    2fe7:	48 8b 40 20          	mov    0x20(%rax),%rax
    2feb:	8b 40 08             	mov    0x8(%rax),%eax
    2fee:	39 45 a0             	cmp    %eax,-0x60(%rbp)
    2ff1:	0f 82 cd fe ff ff    	jb     2ec4 <map_put+0xd0f>
    2ff7:	48 8b 45 b0          	mov    -0x50(%rbp),%rax
    2ffb:	48 8b 40 20          	mov    0x20(%rax),%rax
    2fff:	48 8b 00             	mov    (%rax),%rax
    3002:	48 89 c7             	mov    %rax,%rdi
    3005:	e8 96 e1 ff ff       	call   11a0 <free@plt>
    300a:	48 8b 45 b0          	mov    -0x50(%rbp),%rax
    300e:	48 8b 40 20          	mov    0x20(%rax),%rax
    3012:	8b 50 08             	mov    0x8(%rax),%edx
    3015:	48 8b 45 b0          	mov    -0x50(%rbp),%rax
    3019:	48 8b 40 20          	mov    0x20(%rax),%rax
    301d:	01 d2                	add    %edx,%edx
    301f:	89 50 08             	mov    %edx,0x8(%rax)
    3022:	48 8b 45 b0          	mov    -0x50(%rbp),%rax
    3026:	48 8b 40 20          	mov    0x20(%rax),%rax
    302a:	8b 50 0c             	mov    0xc(%rax),%edx
    302d:	83 c2 01             	add    $0x1,%edx
    3030:	89 50 0c             	mov    %edx,0xc(%rax)
    3033:	48 8b 45 b0          	mov    -0x50(%rbp),%rax
    3037:	48 8b 40 20          	mov    0x20(%rax),%rax
    303b:	48 8b 55 d8          	mov    -0x28(%rbp),%rdx
    303f:	48 89 10             	mov    %rdx,(%rax)
    3042:	48 8b 45 b0          	mov    -0x50(%rbp),%rax
    3046:	48 8b 40 20          	mov    0x20(%rax),%rax
    304a:	8b 40 2c             	mov    0x2c(%rax),%eax
    304d:	48 8b 55 b0          	mov    -0x50(%rbp),%rdx
    3051:	48 8b 52 20          	mov    0x20(%rdx),%rdx
    3055:	8b 52 10             	mov    0x10(%rdx),%edx
    3058:	d1 ea                	shr    $1,%edx
    305a:	39 c2                	cmp    %eax,%edx
    305c:	73 10                	jae    306e <map_put+0xeb9>
    305e:	48 8b 45 b0          	mov    -0x50(%rbp),%rax
    3062:	48 8b 40 20          	mov    0x20(%rax),%rax
    3066:	8b 40 30             	mov    0x30(%rax),%eax
    3069:	8d 50 01             	lea    0x1(%rax),%edx
    306c:	eb 05                	jmp    3073 <map_put+0xebe>
    306e:	ba 00 00 00 00       	mov    $0x0,%edx
    3073:	48 8b 45 b0          	mov    -0x50(%rbp),%rax
    3077:	48 8b 40 20          	mov    0x20(%rax),%rax
    307b:	89 50 30             	mov    %edx,0x30(%rax)
    307e:	48 8b 45 b0          	mov    -0x50(%rbp),%rax
    3082:	48 8b 40 20          	mov    0x20(%rax),%rax
    3086:	8b 40 30             	mov    0x30(%rax),%eax
    3089:	83 f8 01             	cmp    $0x1,%eax
    308c:	76 6b                	jbe    30f9 <map_put+0xf44>
    308e:	48 8b 45 b0          	mov    -0x50(%rbp),%rax
    3092:	48 8b 40 20          	mov    0x20(%rax),%rax
    3096:	c7 40 34 01 00 00 00 	movl   $0x1,0x34(%rax)
    309d:	eb 5a                	jmp    30f9 <map_put+0xf44>
    309f:	48 8b 45 b0          	mov    -0x50(%rbp),%rax
    30a3:	48 8b 40 10          	mov    0x10(%rax),%rax
    30a7:	48 89 c7             	mov    %rax,%rdi
    30aa:	e8 f1 e0 ff ff       	call   11a0 <free@plt>
    30af:	48 8b 85 58 ff ff ff 	mov    -0xa8(%rbp),%rax
    30b6:	48 89 c7             	mov    %rax,%rdi
    30b9:	e8 f2 e1 ff ff       	call   12b0 <malloc@plt>
    30be:	48 89 c2             	mov    %rax,%rdx
    30c1:	48 8b 45 b0          	mov    -0x50(%rbp),%rax
    30c5:	48 89 50 10          	mov    %rdx,0x10(%rax)
    30c9:	48 8b 45 b0          	mov    -0x50(%rbp),%rax
    30cd:	48 8b 40 10          	mov    0x10(%rax),%rax
    30d1:	48 8b 95 58 ff ff ff 	mov    -0xa8(%rbp),%rdx
    30d8:	48 8b 8d 60 ff ff ff 	mov    -0xa0(%rbp),%rcx
    30df:	48 89 ce             	mov    %rcx,%rsi
    30e2:	48 89 c7             	mov    %rax,%rdi
    30e5:	e8 b6 e1 ff ff       	call   12a0 <memcpy@plt>
    30ea:	48 8b 45 b0          	mov    -0x50(%rbp),%rax
    30ee:	48 8b 95 58 ff ff ff 	mov    -0xa8(%rbp),%rdx
    30f5:	48 89 50 18          	mov    %rdx,0x18(%rax)
    30f9:	90                   	nop
    30fa:	48 8b 5d f8          	mov    -0x8(%rbp),%rbx
    30fe:	c9                   	leave
    30ff:	c3                   	ret

0000000000003100 <map_get>:
    3100:	f3 0f 1e fa          	endbr64
    3104:	55                   	push   %rbp
    3105:	48 89 e5             	mov    %rsp,%rbp
    3108:	48 83 ec 50          	sub    $0x50,%rsp
    310c:	48 89 7d c8          	mov    %rdi,-0x38(%rbp)
    3110:	48 89 75 c0          	mov    %rsi,-0x40(%rbp)
    3114:	48 89 55 b8          	mov    %rdx,-0x48(%rbp)
    3118:	48 89 4d b0          	mov    %rcx,-0x50(%rbp)
    311c:	48 c7 45 f0 00 00 00 	movq   $0x0,-0x10(%rbp)
    3123:	00 
    3124:	48 8b 45 c8          	mov    -0x38(%rbp),%rax
    3128:	48 8b 00             	mov    (%rax),%rax
    312b:	48 85 c0             	test   %rax,%rax
    312e:	0f 84 9e 04 00 00    	je     35d2 <map_get+0x4d2>
    3134:	48 8b 45 c0          	mov    -0x40(%rbp),%rax
    3138:	48 89 45 f8          	mov    %rax,-0x8(%rbp)
    313c:	c7 45 dc ef be ed fe 	movl   $0xfeedbeef,-0x24(%rbp)
    3143:	c7 45 e4 b9 79 37 9e 	movl   $0x9e3779b9,-0x1c(%rbp)
    314a:	8b 45 e4             	mov    -0x1c(%rbp),%eax
    314d:	89 45 e0             	mov    %eax,-0x20(%rbp)
    3150:	48 8b 45 b8          	mov    -0x48(%rbp),%rax
    3154:	89 45 e8             	mov    %eax,-0x18(%rbp)
    3157:	e9 a0 01 00 00       	jmp    32fc <map_get+0x1fc>
    315c:	48 8b 45 f8          	mov    -0x8(%rbp),%rax
    3160:	0f b6 00             	movzbl (%rax),%eax
    3163:	0f b6 c0             	movzbl %al,%eax
    3166:	48 8b 55 f8          	mov    -0x8(%rbp),%rdx
    316a:	48 83 c2 01          	add    $0x1,%rdx
    316e:	0f b6 12             	movzbl (%rdx),%edx
    3171:	0f b6 d2             	movzbl %dl,%edx
    3174:	c1 e2 08             	shl    $0x8,%edx
    3177:	01 c2                	add    %eax,%edx
    3179:	48 8b 45 f8          	mov    -0x8(%rbp),%rax
    317d:	48 83 c0 02          	add    $0x2,%rax
    3181:	0f b6 00             	movzbl (%rax),%eax
    3184:	0f b6 c0             	movzbl %al,%eax
    3187:	c1 e0 10             	shl    $0x10,%eax
    318a:	01 c2                	add    %eax,%edx
    318c:	48 8b 45 f8          	mov    -0x8(%rbp),%rax
    3190:	48 83 c0 03          	add    $0x3,%rax
    3194:	0f b6 00             	movzbl (%rax),%eax
    3197:	0f b6 c0             	movzbl %al,%eax
    319a:	c1 e0 18             	shl    $0x18,%eax
    319d:	01 d0                	add    %edx,%eax
    319f:	01 45 e0             	add    %eax,-0x20(%rbp)
    31a2:	48 8b 45 f8          	mov    -0x8(%rbp),%rax
    31a6:	48 83 c0 04          	add    $0x4,%rax
    31aa:	0f b6 00             	movzbl (%rax),%eax
    31ad:	0f b6 c0             	movzbl %al,%eax
    31b0:	48 8b 55 f8          	mov    -0x8(%rbp),%rdx
    31b4:	48 83 c2 05          	add    $0x5,%rdx
    31b8:	0f b6 12             	movzbl (%rdx),%edx
    31bb:	0f b6 d2             	movzbl %dl,%edx
    31be:	c1 e2 08             	shl    $0x8,%edx
    31c1:	01 c2                	add    %eax,%edx
    31c3:	48 8b 45 f8          	mov    -0x8(%rbp),%rax
    31c7:	48 83 c0 06          	add    $0x6,%rax
    31cb:	0f b6 00             	movzbl (%rax),%eax
    31ce:	0f b6 c0             	movzbl %al,%eax
    31d1:	c1 e0 10             	shl    $0x10,%eax
    31d4:	01 c2                	add    %eax,%edx
    31d6:	48 8b 45 f8          	mov    -0x8(%rbp),%rax
    31da:	48 83 c0 07          	add    $0x7,%rax
    31de:	0f b6 00             	movzbl (%rax),%eax
    31e1:	0f b6 c0             	movzbl %al,%eax
    31e4:	c1 e0 18             	shl    $0x18,%eax
    31e7:	01 d0                	add    %edx,%eax
    31e9:	01 45 e4             	add    %eax,-0x1c(%rbp)
    31ec:	48 8b 45 f8          	mov    -0x8(%rbp),%rax
    31f0:	48 83 c0 08          	add    $0x8,%rax
    31f4:	0f b6 00             	movzbl (%rax),%eax
    31f7:	0f b6 c0             	movzbl %al,%eax
    31fa:	48 8b 55 f8          	mov    -0x8(%rbp),%rdx
    31fe:	48 83 c2 09          	add    $0x9,%rdx
    3202:	0f b6 12             	movzbl (%rdx),%edx
    3205:	0f b6 d2             	movzbl %dl,%edx
    3208:	c1 e2 08             	shl    $0x8,%edx
    320b:	01 c2                	add    %eax,%edx
    320d:	48 8b 45 f8          	mov    -0x8(%rbp),%rax
    3211:	48 83 c0 0a          	add    $0xa,%rax
    3215:	0f b6 00             	movzbl (%rax),%eax
    3218:	0f b6 c0             	movzbl %al,%eax
    321b:	c1 e0 10             	shl    $0x10,%eax
    321e:	01 c2                	add    %eax,%edx
    3220:	48 8b 45 f8          	mov    -0x8(%rbp),%rax
    3224:	48 83 c0 0b          	add    $0xb,%rax
    3228:	0f b6 00             	movzbl (%rax),%eax
    322b:	0f b6 c0             	movzbl %al,%eax
    322e:	c1 e0 18             	shl    $0x18,%eax
    3231:	01 d0                	add    %edx,%eax
    3233:	01 45 dc             	add    %eax,-0x24(%rbp)
    3236:	8b 45 e4             	mov    -0x1c(%rbp),%eax
    3239:	29 45 e0             	sub    %eax,-0x20(%rbp)
    323c:	8b 45 dc             	mov    -0x24(%rbp),%eax
    323f:	29 45 e0             	sub    %eax,-0x20(%rbp)
    3242:	8b 45 dc             	mov    -0x24(%rbp),%eax
    3245:	c1 e8 0d             	shr    $0xd,%eax
    3248:	31 45 e0             	xor    %eax,-0x20(%rbp)
    324b:	8b 45 dc             	mov    -0x24(%rbp),%eax
    324e:	29 45 e4             	sub    %eax,-0x1c(%rbp)
    3251:	8b 45 e0             	mov    -0x20(%rbp),%eax
    3254:	29 45 e4             	sub    %eax,-0x1c(%rbp)
    3257:	8b 45 e0             	mov    -0x20(%rbp),%eax
    325a:	c1 e0 08             	shl    $0x8,%eax
    325d:	31 45 e4             	xor    %eax,-0x1c(%rbp)
    3260:	8b 45 e0             	mov    -0x20(%rbp),%eax
    3263:	29 45 dc             	sub    %eax,-0x24(%rbp)
    3266:	8b 45 e4             	mov    -0x1c(%rbp),%eax
    3269:	29 45 dc             	sub    %eax,-0x24(%rbp)
    326c:	8b 45 e4             	mov    -0x1c(%rbp),%eax
    326f:	c1 e8 0d             	shr    $0xd,%eax
    3272:	31 45 dc             	xor    %eax,-0x24(%rbp)
    3275:	8b 45 e4             	mov    -0x1c(%rbp),%eax
    3278:	29 45 e0             	sub    %eax,-0x20(%rbp)
    327b:	8b 45 dc             	mov    -0x24(%rbp),%eax
    327e:	29 45 e0             	sub    %eax,-0x20(%rbp)
    3281:	8b 45 dc             	mov    -0x24(%rbp),%eax
    3284:	c1 e8 0c             	shr    $0xc,%eax
    3287:	31 45 e0             	xor    %eax,-0x20(%rbp)
    328a:	8b 45 dc             	mov    -0x24(%rbp),%eax
    328d:	29 45 e4             	sub    %eax,-0x1c(%rbp)
    3290:	8b 45 e0             	mov    -0x20(%rbp),%eax
    3293:	29 45 e4             	sub    %eax,-0x1c(%rbp)
    3296:	8b 45 e0             	mov    -0x20(%rbp),%eax
    3299:	c1 e0 10             	shl    $0x10,%eax
    329c:	31 45 e4             	xor    %eax,-0x1c(%rbp)
    329f:	8b 45 e0             	mov    -0x20(%rbp),%eax
    32a2:	29 45 dc             	sub    %eax,-0x24(%rbp)
    32a5:	8b 45 e4             	mov    -0x1c(%rbp),%eax
    32a8:	29 45 dc             	sub    %eax,-0x24(%rbp)
    32ab:	8b 45 e4             	mov    -0x1c(%rbp),%eax
    32ae:	c1 e8 05             	shr    $0x5,%eax
    32b1:	31 45 dc             	xor    %eax,-0x24(%rbp)
    32b4:	8b 45 e4             	mov    -0x1c(%rbp),%eax
    32b7:	29 45 e0             	sub    %eax,-0x20(%rbp)
    32ba:	8b 45 dc             	mov    -0x24(%rbp),%eax
    32bd:	29 45 e0             	sub    %eax,-0x20(%rbp)
    32c0:	8b 45 dc             	mov    -0x24(%rbp),%eax
    32c3:	c1 e8 03             	shr    $0x3,%eax
    32c6:	31 45 e0             	xor    %eax,-0x20(%rbp)
    32c9:	8b 45 dc             	mov    -0x24(%rbp),%eax
    32cc:	29 45 e4             	sub    %eax,-0x1c(%rbp)
    32cf:	8b 45 e0             	mov    -0x20(%rbp),%eax
    32d2:	29 45 e4             	sub    %eax,-0x1c(%rbp)
    32d5:	8b 45 e0             	mov    -0x20(%rbp),%eax
    32d8:	c1 e0 0a             	shl    $0xa,%eax
    32db:	31 45 e4             	xor    %eax,-0x1c(%rbp)
    32de:	8b 45 e0             	mov    -0x20(%rbp),%eax
    32e1:	29 45 dc             	sub    %eax,-0x24(%rbp)
    32e4:	8b 45 e4             	mov    -0x1c(%rbp),%eax
    32e7:	29 45 dc             	sub    %eax,-0x24(%rbp)
    32ea:	8b 45 e4             	mov    -0x1c(%rbp),%eax
    32ed:	c1 e8 0f             	shr    $0xf,%eax
    32f0:	31 45 dc             	xor    %eax,-0x24(%rbp)
    32f3:	48 83 45 f8 0c       	addq   $0xc,-0x8(%rbp)
    32f8:	83 6d e8 0c          	subl   $0xc,-0x18(%rbp)
    32fc:	83 7d e8 0b          	cmpl   $0xb,-0x18(%rbp)
    3300:	0f 87 56 fe ff ff    	ja     315c <map_get+0x5c>
    3306:	48 8b 45 b8          	mov    -0x48(%rbp),%rax
    330a:	01 45 dc             	add    %eax,-0x24(%rbp)
    330d:	83 7d e8 0b          	cmpl   $0xb,-0x18(%rbp)
    3311:	0f 87 f6 00 00 00    	ja     340d <map_get+0x30d>
    3317:	8b 45 e8             	mov    -0x18(%rbp),%eax
    331a:	48 8d 14 85 00 00 00 	lea    0x0(,%rax,4),%rdx
    3321:	00 
    3322:	48 8d 05 53 1f 00 00 	lea    0x1f53(%rip),%rax        # 527c <_IO_stdin_used+0x27c>
    3329:	8b 04 02             	mov    (%rdx,%rax,1),%eax
    332c:	48 98                	cltq
    332e:	48 8d 15 47 1f 00 00 	lea    0x1f47(%rip),%rdx        # 527c <_IO_stdin_used+0x27c>
    3335:	48 01 d0             	add    %rdx,%rax
    3338:	3e ff e0             	notrack jmp *%rax
    333b:	48 8b 45 f8          	mov    -0x8(%rbp),%rax
    333f:	48 83 c0 0a          	add    $0xa,%rax
    3343:	0f b6 00             	movzbl (%rax),%eax
    3346:	0f b6 c0             	movzbl %al,%eax
    3349:	c1 e0 18             	shl    $0x18,%eax
    334c:	01 45 dc             	add    %eax,-0x24(%rbp)
    334f:	48 8b 45 f8          	mov    -0x8(%rbp),%rax
    3353:	48 83 c0 09          	add    $0x9,%rax
    3357:	0f b6 00             	movzbl (%rax),%eax
    335a:	0f b6 c0             	movzbl %al,%eax
    335d:	c1 e0 10             	shl    $0x10,%eax
    3360:	01 45 dc             	add    %eax,-0x24(%rbp)
    3363:	48 8b 45 f8          	mov    -0x8(%rbp),%rax
    3367:	48 83 c0 08          	add    $0x8,%rax
    336b:	0f b6 00             	movzbl (%rax),%eax
    336e:	0f b6 c0             	movzbl %al,%eax
    3371:	c1 e0 08             	shl    $0x8,%eax
    3374:	01 45 dc             	add    %eax,-0x24(%rbp)
    3377:	48 8b 45 f8          	mov    -0x8(%rbp),%rax
    337b:	48 83 c0 07          	add    $0x7,%rax
    337f:	0f b6 00             	movzbl (%rax),%eax
    3382:	0f b6 c0             	movzbl %al,%eax
    3385:	c1 e0 18             	shl    $0x18,%eax
    3388:	01 45 e4             	add    %eax,-0x1c(%rbp)
    338b:	48 8b 45 f8          	mov    -0x8(%rbp),%rax
    338f:	48 83 c0 06          	add    $0x6,%rax
    3393:	0f b6 00             	movzbl (%rax),%eax
    3396:	0f b6 c0             	movzbl %al,%eax
    3399:	c1 e0 10             	shl    $0x10,%eax
    339c:	01 45 e4             	add    %eax,-0x1c(%rbp)
    339f:	48 8b 45 f8          	mov    -0x8(%rbp),%rax
    33a3:	48 83 c0 05          	add    $0x5,%rax
    33a7:	0f b6 00             	movzbl (%rax),%eax
    33aa:	0f b6 c0             	movzbl %al,%eax
    33ad:	c1 e0 08             	shl    $0x8,%eax
    33b0:	01 45 e4             	add    %eax,-0x1c(%rbp)
    33b3:	48 8b 45 f8          	mov    -0x8(%rbp),%rax
    33b7:	48 83 c0 04          	add    $0x4,%rax
    33bb:	0f b6 00             	movzbl (%rax),%eax
    33be:	0f b6 c0             	movzbl %al,%eax
    33c1:	01 45 e4             	add    %eax,-0x1c(%rbp)
    33c4:	48 8b 45 f8          	mov    -0x8(%rbp),%rax
    33c8:	48 83 c0 03          	add    $0x3,%rax
    33cc:	0f b6 00             	movzbl (%rax),%eax
    33cf:	0f b6 c0             	movzbl %al,%eax
    33d2:	c1 e0 18             	shl    $0x18,%eax
    33d5:	01 45 e0             	add    %eax,-0x20(%rbp)
    33d8:	48 8b 45 f8          	mov    -0x8(%rbp),%rax
    33dc:	48 83 c0 02          	add    $0x2,%rax
    33e0:	0f b6 00             	movzbl (%rax),%eax
    33e3:	0f b6 c0             	movzbl %al,%eax
    33e6:	c1 e0 10             	shl    $0x10,%eax
    33e9:	01 45 e0             	add    %eax,-0x20(%rbp)
    33ec:	48 8b 45 f8          	mov    -0x8(%rbp),%rax
    33f0:	48 83 c0 01          	add    $0x1,%rax
    33f4:	0f b6 00             	movzbl (%rax),%eax
    33f7:	0f b6 c0             	movzbl %al,%eax
    33fa:	c1 e0 08             	shl    $0x8,%eax
    33fd:	01 45 e0             	add    %eax,-0x20(%rbp)
    3400:	48 8b 45 f8          	mov    -0x8(%rbp),%rax
    3404:	0f b6 00             	movzbl (%rax),%eax
    3407:	0f b6 c0             	movzbl %al,%eax
    340a:	01 45 e0             	add    %eax,-0x20(%rbp)
    340d:	8b 45 e4             	mov    -0x1c(%rbp),%eax
    3410:	29 45 e0             	sub    %eax,-0x20(%rbp)
    3413:	8b 45 dc             	mov    -0x24(%rbp),%eax
    3416:	29 45 e0             	sub    %eax,-0x20(%rbp)
    3419:	8b 45 dc             	mov    -0x24(%rbp),%eax
    341c:	c1 e8 0d             	shr    $0xd,%eax
    341f:	31 45 e0             	xor    %eax,-0x20(%rbp)
    3422:	8b 45 dc             	mov    -0x24(%rbp),%eax
    3425:	29 45 e4             	sub    %eax,-0x1c(%rbp)
    3428:	8b 45 e0             	mov    -0x20(%rbp),%eax
    342b:	29 45 e4             	sub    %eax,-0x1c(%rbp)
    342e:	8b 45 e0             	mov    -0x20(%rbp),%eax
    3431:	c1 e0 08             	shl    $0x8,%eax
    3434:	31 45 e4             	xor    %eax,-0x1c(%rbp)
    3437:	8b 45 e0             	mov    -0x20(%rbp),%eax
    343a:	29 45 dc             	sub    %eax,-0x24(%rbp)
    343d:	8b 45 e4             	mov    -0x1c(%rbp),%eax
    3440:	29 45 dc             	sub    %eax,-0x24(%rbp)
    3443:	8b 45 e4             	mov    -0x1c(%rbp),%eax
    3446:	c1 e8 0d             	shr    $0xd,%eax
    3449:	31 45 dc             	xor    %eax,-0x24(%rbp)
    344c:	8b 45 e4             	mov    -0x1c(%rbp),%eax
    344f:	29 45 e0             	sub    %eax,-0x20(%rbp)
    3452:	8b 45 dc             	mov    -0x24(%rbp),%eax
    3455:	29 45 e0             	sub    %eax,-0x20(%rbp)
    3458:	8b 45 dc             	mov    -0x24(%rbp),%eax
    345b:	c1 e8 0c             	shr    $0xc,%eax
    345e:	31 45 e0             	xor    %eax,-0x20(%rbp)
    3461:	8b 45 dc             	mov    -0x24(%rbp),%eax
    3464:	29 45 e4             	sub    %eax,-0x1c(%rbp)
    3467:	8b 45 e0             	mov    -0x20(%rbp),%eax
    346a:	29 45 e4             	sub    %eax,-0x1c(%rbp)
    346d:	8b 45 e0             	mov    -0x20(%rbp),%eax
    3470:	c1 e0 10             	shl    $0x10,%eax
    3473:	31 45 e4             	xor    %eax,-0x1c(%rbp)
    3476:	8b 45 e0             	mov    -0x20(%rbp),%eax
    3479:	29 45 dc             	sub    %eax,-0x24(%rbp)
    347c:	8b 45 e4             	mov    -0x1c(%rbp),%eax
    347f:	29 45 dc             	sub    %eax,-0x24(%rbp)
    3482:	8b 45 e4             	mov    -0x1c(%rbp),%eax
    3485:	c1 e8 05             	shr    $0x5,%eax
    3488:	31 45 dc             	xor    %eax,-0x24(%rbp)
    348b:	8b 45 e4             	mov    -0x1c(%rbp),%eax
    348e:	29 45 e0             	sub    %eax,-0x20(%rbp)
    3491:	8b 45 dc             	mov    -0x24(%rbp),%eax
    3494:	29 45 e0             	sub    %eax,-0x20(%rbp)
    3497:	8b 45 dc             	mov    -0x24(%rbp),%eax
    349a:	c1 e8 03             	shr    $0x3,%eax
    349d:	31 45 e0             	xor    %eax,-0x20(%rbp)
    34a0:	8b 45 dc             	mov    -0x24(%rbp),%eax
    34a3:	29 45 e4             	sub    %eax,-0x1c(%rbp)
    34a6:	8b 45 e0             	mov    -0x20(%rbp),%eax
    34a9:	29 45 e4             	sub    %eax,-0x1c(%rbp)
    34ac:	8b 45 e0             	mov    -0x20(%rbp),%eax
    34af:	c1 e0 0a             	shl    $0xa,%eax
    34b2:	31 45 e4             	xor    %eax,-0x1c(%rbp)
    34b5:	8b 45 e0             	mov    -0x20(%rbp),%eax
    34b8:	29 45 dc             	sub    %eax,-0x24(%rbp)
    34bb:	8b 45 e4             	mov    -0x1c(%rbp),%eax
    34be:	29 45 dc             	sub    %eax,-0x24(%rbp)
    34c1:	8b 45 e4             	mov    -0x1c(%rbp),%eax
    34c4:	c1 e8 0f             	shr    $0xf,%eax
    34c7:	31 45 dc             	xor    %eax,-0x24(%rbp)
    34ca:	48 c7 45 f0 00 00 00 	movq   $0x0,-0x10(%rbp)
    34d1:	00 
    34d2:	48 8b 45 c8          	mov    -0x38(%rbp),%rax
    34d6:	48 8b 00             	mov    (%rax),%rax
    34d9:	48 85 c0             	test   %rax,%rax
    34dc:	0f 84 f0 00 00 00    	je     35d2 <map_get+0x4d2>
    34e2:	48 8b 45 c8          	mov    -0x38(%rbp),%rax
    34e6:	48 8b 00             	mov    (%rax),%rax
    34e9:	48 8b 40 20          	mov    0x20(%rax),%rax
    34ed:	8b 40 08             	mov    0x8(%rax),%eax
    34f0:	83 e8 01             	sub    $0x1,%eax
    34f3:	23 45 dc             	and    -0x24(%rbp),%eax
    34f6:	89 45 ec             	mov    %eax,-0x14(%rbp)
    34f9:	48 8b 45 c8          	mov    -0x38(%rbp),%rax
    34fd:	48 8b 00             	mov    (%rax),%rax
    3500:	48 8b 40 20          	mov    0x20(%rax),%rax
    3504:	48 8b 00             	mov    (%rax),%rax
    3507:	8b 55 ec             	mov    -0x14(%rbp),%edx
    350a:	48 c1 e2 04          	shl    $0x4,%rdx
    350e:	48 01 d0             	add    %rdx,%rax
    3511:	48 8b 00             	mov    (%rax),%rax
    3514:	48 85 c0             	test   %rax,%rax
    3517:	74 36                	je     354f <map_get+0x44f>
    3519:	48 8b 45 c8          	mov    -0x38(%rbp),%rax
    351d:	48 8b 00             	mov    (%rax),%rax
    3520:	48 8b 40 20          	mov    0x20(%rax),%rax
    3524:	48 8b 00             	mov    (%rax),%rax
    3527:	8b 55 ec             	mov    -0x14(%rbp),%edx
    352a:	48 c1 e2 04          	shl    $0x4,%rdx
    352e:	48 01 d0             	add    %rdx,%rax
    3531:	48 8b 10             	mov    (%rax),%rdx
    3534:	48 8b 45 c8          	mov    -0x38(%rbp),%rax
    3538:	48 8b 00             	mov    (%rax),%rax
    353b:	48 8b 40 20          	mov    0x20(%rax),%rax
    353f:	48 8b 40 20          	mov    0x20(%rax),%rax
    3543:	48 f7 d8             	neg    %rax
    3546:	48 01 d0             	add    %rdx,%rax
    3549:	48 89 45 f0          	mov    %rax,-0x10(%rbp)
    354d:	eb 7c                	jmp    35cb <map_get+0x4cb>
    354f:	48 c7 45 f0 00 00 00 	movq   $0x0,-0x10(%rbp)
    3556:	00 
    3557:	eb 72                	jmp    35cb <map_get+0x4cb>
    3559:	48 8b 45 f0          	mov    -0x10(%rbp),%rax
    355d:	8b 40 54             	mov    0x54(%rax),%eax
    3560:	39 45 dc             	cmp    %eax,-0x24(%rbp)
    3563:	75 2e                	jne    3593 <map_get+0x493>
    3565:	48 8b 45 f0          	mov    -0x10(%rbp),%rax
    3569:	8b 40 50             	mov    0x50(%rax),%eax
    356c:	89 c0                	mov    %eax,%eax
    356e:	48 39 45 b8          	cmp    %rax,-0x48(%rbp)
    3572:	75 1f                	jne    3593 <map_get+0x493>
    3574:	48 8b 45 f0          	mov    -0x10(%rbp),%rax
    3578:	48 8b 40 48          	mov    0x48(%rax),%rax
    357c:	48 8b 55 b8          	mov    -0x48(%rbp),%rdx
    3580:	48 8b 4d c0          	mov    -0x40(%rbp),%rcx
    3584:	48 89 ce             	mov    %rcx,%rsi
    3587:	48 89 c7             	mov    %rax,%rdi
    358a:	e8 d1 dc ff ff       	call   1260 <memcmp@plt>
    358f:	85 c0                	test   %eax,%eax
    3591:	74 3f                	je     35d2 <map_get+0x4d2>
    3593:	48 8b 45 f0          	mov    -0x10(%rbp),%rax
    3597:	48 8b 40 40          	mov    0x40(%rax),%rax
    359b:	48 85 c0             	test   %rax,%rax
    359e:	74 23                	je     35c3 <map_get+0x4c3>
    35a0:	48 8b 45 f0          	mov    -0x10(%rbp),%rax
    35a4:	48 8b 50 40          	mov    0x40(%rax),%rdx
    35a8:	48 8b 45 c8          	mov    -0x38(%rbp),%rax
    35ac:	48 8b 00             	mov    (%rax),%rax
    35af:	48 8b 40 20          	mov    0x20(%rax),%rax
    35b3:	48 8b 40 20          	mov    0x20(%rax),%rax
    35b7:	48 f7 d8             	neg    %rax
    35ba:	48 01 d0             	add    %rdx,%rax
    35bd:	48 89 45 f0          	mov    %rax,-0x10(%rbp)
    35c1:	eb 08                	jmp    35cb <map_get+0x4cb>
    35c3:	48 c7 45 f0 00 00 00 	movq   $0x0,-0x10(%rbp)
    35ca:	00 
    35cb:	48 83 7d f0 00       	cmpq   $0x0,-0x10(%rbp)
    35d0:	75 87                	jne    3559 <map_get+0x459>
    35d2:	48 83 7d f0 00       	cmpq   $0x0,-0x10(%rbp)
    35d7:	74 16                	je     35ef <map_get+0x4ef>
    35d9:	48 8b 45 f0          	mov    -0x10(%rbp),%rax
    35dd:	48 8b 50 10          	mov    0x10(%rax),%rdx
    35e1:	48 8b 45 b0          	mov    -0x50(%rbp),%rax
    35e5:	48 89 10             	mov    %rdx,(%rax)
    35e8:	b8 01 00 00 00       	mov    $0x1,%eax
    35ed:	eb 05                	jmp    35f4 <map_get+0x4f4>
    35ef:	b8 00 00 00 00       	mov    $0x0,%eax
    35f4:	c9                   	leave
    35f5:	c3                   	ret

00000000000035f6 <map_contains>:
    35f6:	f3 0f 1e fa          	endbr64
    35fa:	55                   	push   %rbp
    35fb:	48 89 e5             	mov    %rsp,%rbp
    35fe:	48 83 ec 50          	sub    $0x50,%rsp
    3602:	48 89 7d c8          	mov    %rdi,-0x38(%rbp)
    3606:	48 89 75 c0          	mov    %rsi,-0x40(%rbp)
    360a:	48 89 55 b8          	mov    %rdx,-0x48(%rbp)
    360e:	48 c7 45 f0 00 00 00 	movq   $0x0,-0x10(%rbp)
    3615:	00 
    3616:	48 8b 45 c8          	mov    -0x38(%rbp),%rax
    361a:	48 8b 00             	mov    (%rax),%rax
    361d:	48 85 c0             	test   %rax,%rax
    3620:	0f 84 9e 04 00 00    	je     3ac4 <map_contains+0x4ce>
    3626:	48 8b 45 c0          	mov    -0x40(%rbp),%rax
    362a:	48 89 45 f8          	mov    %rax,-0x8(%rbp)
    362e:	c7 45 dc ef be ed fe 	movl   $0xfeedbeef,-0x24(%rbp)
    3635:	c7 45 e4 b9 79 37 9e 	movl   $0x9e3779b9,-0x1c(%rbp)
    363c:	8b 45 e4             	mov    -0x1c(%rbp),%eax
    363f:	89 45 e0             	mov    %eax,-0x20(%rbp)
    3642:	48 8b 45 b8          	mov    -0x48(%rbp),%rax
    3646:	89 45 e8             	mov    %eax,-0x18(%rbp)
    3649:	e9 a0 01 00 00       	jmp    37ee <map_contains+0x1f8>
    364e:	48 8b 45 f8          	mov    -0x8(%rbp),%rax
    3652:	0f b6 00             	movzbl (%rax),%eax
    3655:	0f b6 c0             	movzbl %al,%eax
    3658:	48 8b 55 f8          	mov    -0x8(%rbp),%rdx
    365c:	48 83 c2 01          	add    $0x1,%rdx
    3660:	0f b6 12             	movzbl (%rdx),%edx
    3663:	0f b6 d2             	movzbl %dl,%edx
    3666:	c1 e2 08             	shl    $0x8,%edx
    3669:	01 c2                	add    %eax,%edx
    366b:	48 8b 45 f8          	mov    -0x8(%rbp),%rax
    366f:	48 83 c0 02          	add    $0x2,%rax
    3673:	0f b6 00             	movzbl (%rax),%eax
    3676:	0f b6 c0             	movzbl %al,%eax
    3679:	c1 e0 10             	shl    $0x10,%eax
    367c:	01 c2                	add    %eax,%edx
    367e:	48 8b 45 f8          	mov    -0x8(%rbp),%rax
    3682:	48 83 c0 03          	add    $0x3,%rax
    3686:	0f b6 00             	movzbl (%rax),%eax
    3689:	0f b6 c0             	movzbl %al,%eax
    368c:	c1 e0 18             	shl    $0x18,%eax
    368f:	01 d0                	add    %edx,%eax
    3691:	01 45 e0             	add    %eax,-0x20(%rbp)
    3694:	48 8b 45 f8          	mov    -0x8(%rbp),%rax
    3698:	48 83 c0 04          	add    $0x4,%rax
    369c:	0f b6 00             	movzbl (%rax),%eax
    369f:	0f b6 c0             	movzbl %al,%eax
    36a2:	48 8b 55 f8          	mov    -0x8(%rbp),%rdx
    36a6:	48 83 c2 05          	add    $0x5,%rdx
    36aa:	0f b6 12             	movzbl (%rdx),%edx
    36ad:	0f b6 d2             	movzbl %dl,%edx
    36b0:	c1 e2 08             	shl    $0x8,%edx
    36b3:	01 c2                	add    %eax,%edx
    36b5:	48 8b 45 f8          	mov    -0x8(%rbp),%rax
    36b9:	48 83 c0 06          	add    $0x6,%rax
    36bd:	0f b6 00             	movzbl (%rax),%eax
    36c0:	0f b6 c0             	movzbl %al,%eax
    36c3:	c1 e0 10             	shl    $0x10,%eax
    36c6:	01 c2                	add    %eax,%edx
    36c8:	48 8b 45 f8          	mov    -0x8(%rbp),%rax
    36cc:	48 83 c0 07          	add    $0x7,%rax
    36d0:	0f b6 00             	movzbl (%rax),%eax
    36d3:	0f b6 c0             	movzbl %al,%eax
    36d6:	c1 e0 18             	shl    $0x18,%eax
    36d9:	01 d0                	add    %edx,%eax
    36db:	01 45 e4             	add    %eax,-0x1c(%rbp)
    36de:	48 8b 45 f8          	mov    -0x8(%rbp),%rax
    36e2:	48 83 c0 08          	add    $0x8,%rax
    36e6:	0f b6 00             	movzbl (%rax),%eax
    36e9:	0f b6 c0             	movzbl %al,%eax
    36ec:	48 8b 55 f8          	mov    -0x8(%rbp),%rdx
    36f0:	48 83 c2 09          	add    $0x9,%rdx
    36f4:	0f b6 12             	movzbl (%rdx),%edx
    36f7:	0f b6 d2             	movzbl %dl,%edx
    36fa:	c1 e2 08             	shl    $0x8,%edx
    36fd:	01 c2                	add    %eax,%edx
    36ff:	48 8b 45 f8          	mov    -0x8(%rbp),%rax
    3703:	48 83 c0 0a          	add    $0xa,%rax
    3707:	0f b6 00             	movzbl (%rax),%eax
    370a:	0f b6 c0             	movzbl %al,%eax
    370d:	c1 e0 10             	shl    $0x10,%eax
    3710:	01 c2                	add    %eax,%edx
    3712:	48 8b 45 f8          	mov    -0x8(%rbp),%rax
    3716:	48 83 c0 0b          	add    $0xb,%rax
    371a:	0f b6 00             	movzbl (%rax),%eax
    371d:	0f b6 c0             	movzbl %al,%eax
    3720:	c1 e0 18             	shl    $0x18,%eax
    3723:	01 d0                	add    %edx,%eax
    3725:	01 45 dc             	add    %eax,-0x24(%rbp)
    3728:	8b 45 e4             	mov    -0x1c(%rbp),%eax
    372b:	29 45 e0             	sub    %eax,-0x20(%rbp)
    372e:	8b 45 dc             	mov    -0x24(%rbp),%eax
    3731:	29 45 e0             	sub    %eax,-0x20(%rbp)
    3734:	8b 45 dc             	mov    -0x24(%rbp),%eax
    3737:	c1 e8 0d             	shr    $0xd,%eax
    373a:	31 45 e0             	xor    %eax,-0x20(%rbp)
    373d:	8b 45 dc             	mov    -0x24(%rbp),%eax
    3740:	29 45 e4             	sub    %eax,-0x1c(%rbp)
    3743:	8b 45 e0             	mov    -0x20(%rbp),%eax
    3746:	29 45 e4             	sub    %eax,-0x1c(%rbp)
    3749:	8b 45 e0             	mov    -0x20(%rbp),%eax
    374c:	c1 e0 08             	shl    $0x8,%eax
    374f:	31 45 e4             	xor    %eax,-0x1c(%rbp)
    3752:	8b 45 e0             	mov    -0x20(%rbp),%eax
    3755:	29 45 dc             	sub    %eax,-0x24(%rbp)
    3758:	8b 45 e4             	mov    -0x1c(%rbp),%eax
    375b:	29 45 dc             	sub    %eax,-0x24(%rbp)
    375e:	8b 45 e4             	mov    -0x1c(%rbp),%eax
    3761:	c1 e8 0d             	shr    $0xd,%eax
    3764:	31 45 dc             	xor    %eax,-0x24(%rbp)
    3767:	8b 45 e4             	mov    -0x1c(%rbp),%eax
    376a:	29 45 e0             	sub    %eax,-0x20(%rbp)
    376d:	8b 45 dc             	mov    -0x24(%rbp),%eax
    3770:	29 45 e0             	sub    %eax,-0x20(%rbp)
    3773:	8b 45 dc             	mov    -0x24(%rbp),%eax
    3776:	c1 e8 0c             	shr    $0xc,%eax
    3779:	31 45 e0             	xor    %eax,-0x20(%rbp)
    377c:	8b 45 dc             	mov    -0x24(%rbp),%eax
    377f:	29 45 e4             	sub    %eax,-0x1c(%rbp)
    3782:	8b 45 e0             	mov    -0x20(%rbp),%eax
    3785:	29 45 e4             	sub    %eax,-0x1c(%rbp)
    3788:	8b 45 e0             	mov    -0x20(%rbp),%eax
    378b:	c1 e0 10             	shl    $0x10,%eax
    378e:	31 45 e4             	xor    %eax,-0x1c(%rbp)
    3791:	8b 45 e0             	mov    -0x20(%rbp),%eax
    3794:	29 45 dc             	sub    %eax,-0x24(%rbp)
    3797:	8b 45 e4             	mov    -0x1c(%rbp),%eax
    379a:	29 45 dc             	sub    %eax,-0x24(%rbp)
    379d:	8b 45 e4             	mov    -0x1c(%rbp),%eax
    37a0:	c1 e8 05             	shr    $0x5,%eax
    37a3:	31 45 dc             	xor    %eax,-0x24(%rbp)
    37a6:	8b 45 e4             	mov    -0x1c(%rbp),%eax
    37a9:	29 45 e0             	sub    %eax,-0x20(%rbp)
    37ac:	8b 45 dc             	mov    -0x24(%rbp),%eax
    37af:	29 45 e0             	sub    %eax,-0x20(%rbp)
    37b2:	8b 45 dc             	mov    -0x24(%rbp),%eax
    37b5:	c1 e8 03             	shr    $0x3,%eax
    37b8:	31 45 e0             	xor    %eax,-0x20(%rbp)
    37bb:	8b 45 dc             	mov    -0x24(%rbp),%eax
    37be:	29 45 e4             	sub    %eax,-0x1c(%rbp)
    37c1:	8b 45 e0             	mov    -0x20(%rbp),%eax
    37c4:	29 45 e4             	sub    %eax,-0x1c(%rbp)
    37c7:	8b 45 e0             	mov    -0x20(%rbp),%eax
    37ca:	c1 e0 0a             	shl    $0xa,%eax
    37cd:	31 45 e4             	xor    %eax,-0x1c(%rbp)
    37d0:	8b 45 e0             	mov    -0x20(%rbp),%eax
    37d3:	29 45 dc             	sub    %eax,-0x24(%rbp)
    37d6:	8b 45 e4             	mov    -0x1c(%rbp),%eax
    37d9:	29 45 dc             	sub    %eax,-0x24(%rbp)
    37dc:	8b 45 e4             	mov    -0x1c(%rbp),%eax
    37df:	c1 e8 0f             	shr    $0xf,%eax
    37e2:	31 45 dc             	xor    %eax,-0x24(%rbp)
    37e5:	48 83 45 f8 0c       	addq   $0xc,-0x8(%rbp)
    37ea:	83 6d e8 0c          	subl   $0xc,-0x18(%rbp)
    37ee:	83 7d e8 0b          	cmpl   $0xb,-0x18(%rbp)
    37f2:	0f 87 56 fe ff ff    	ja     364e <map_contains+0x58>
    37f8:	48 8b 45 b8          	mov    -0x48(%rbp),%rax
    37fc:	01 45 dc             	add    %eax,-0x24(%rbp)
    37ff:	83 7d e8 0b          	cmpl   $0xb,-0x18(%rbp)
    3803:	0f 87 f6 00 00 00    	ja     38ff <map_contains+0x309>
    3809:	8b 45 e8             	mov    -0x18(%rbp),%eax
    380c:	48 8d 14 85 00 00 00 	lea    0x0(,%rax,4),%rdx
    3813:	00 
    3814:	48 8d 05 91 1a 00 00 	lea    0x1a91(%rip),%rax        # 52ac <_IO_stdin_used+0x2ac>
    381b:	8b 04 02             	mov    (%rdx,%rax,1),%eax
    381e:	48 98                	cltq
    3820:	48 8d 15 85 1a 00 00 	lea    0x1a85(%rip),%rdx        # 52ac <_IO_stdin_used+0x2ac>
    3827:	48 01 d0             	add    %rdx,%rax
    382a:	3e ff e0             	notrack jmp *%rax
    382d:	48 8b 45 f8          	mov    -0x8(%rbp),%rax
    3831:	48 83 c0 0a          	add    $0xa,%rax
    3835:	0f b6 00             	movzbl (%rax),%eax
    3838:	0f b6 c0             	movzbl %al,%eax
    383b:	c1 e0 18             	shl    $0x18,%eax
    383e:	01 45 dc             	add    %eax,-0x24(%rbp)
    3841:	48 8b 45 f8          	mov    -0x8(%rbp),%rax
    3845:	48 83 c0 09          	add    $0x9,%rax
    3849:	0f b6 00             	movzbl (%rax),%eax
    384c:	0f b6 c0             	movzbl %al,%eax
    384f:	c1 e0 10             	shl    $0x10,%eax
    3852:	01 45 dc             	add    %eax,-0x24(%rbp)
    3855:	48 8b 45 f8          	mov    -0x8(%rbp),%rax
    3859:	48 83 c0 08          	add    $0x8,%rax
    385d:	0f b6 00             	movzbl (%rax),%eax
    3860:	0f b6 c0             	movzbl %al,%eax
    3863:	c1 e0 08             	shl    $0x8,%eax
    3866:	01 45 dc             	add    %eax,-0x24(%rbp)
    3869:	48 8b 45 f8          	mov    -0x8(%rbp),%rax
    386d:	48 83 c0 07          	add    $0x7,%rax
    3871:	0f b6 00             	movzbl (%rax),%eax
    3874:	0f b6 c0             	movzbl %al,%eax
    3877:	c1 e0 18             	shl    $0x18,%eax
    387a:	01 45 e4             	add    %eax,-0x1c(%rbp)
    387d:	48 8b 45 f8          	mov    -0x8(%rbp),%rax
    3881:	48 83 c0 06          	add    $0x6,%rax
    3885:	0f b6 00             	movzbl (%rax),%eax
    3888:	0f b6 c0             	movzbl %al,%eax
    388b:	c1 e0 10             	shl    $0x10,%eax
    388e:	01 45 e4             	add    %eax,-0x1c(%rbp)
    3891:	48 8b 45 f8          	mov    -0x8(%rbp),%rax
    3895:	48 83 c0 05          	add    $0x5,%rax
    3899:	0f b6 00             	movzbl (%rax),%eax
    389c:	0f b6 c0             	movzbl %al,%eax
    389f:	c1 e0 08             	shl    $0x8,%eax
    38a2:	01 45 e4             	add    %eax,-0x1c(%rbp)
    38a5:	48 8b 45 f8          	mov    -0x8(%rbp),%rax
    38a9:	48 83 c0 04          	add    $0x4,%rax
    38ad:	0f b6 00             	movzbl (%rax),%eax
    38b0:	0f b6 c0             	movzbl %al,%eax
    38b3:	01 45 e4             	add    %eax,-0x1c(%rbp)
    38b6:	48 8b 45 f8          	mov    -0x8(%rbp),%rax
    38ba:	48 83 c0 03          	add    $0x3,%rax
    38be:	0f b6 00             	movzbl (%rax),%eax
    38c1:	0f b6 c0             	movzbl %al,%eax
    38c4:	c1 e0 18             	shl    $0x18,%eax
    38c7:	01 45 e0             	add    %eax,-0x20(%rbp)
    38ca:	48 8b 45 f8          	mov    -0x8(%rbp),%rax
    38ce:	48 83 c0 02          	add    $0x2,%rax
    38d2:	0f b6 00             	movzbl (%rax),%eax
    38d5:	0f b6 c0             	movzbl %al,%eax
    38d8:	c1 e0 10             	shl    $0x10,%eax
    38db:	01 45 e0             	add    %eax,-0x20(%rbp)
    38de:	48 8b 45 f8          	mov    -0x8(%rbp),%rax
    38e2:	48 83 c0 01          	add    $0x1,%rax
    38e6:	0f b6 00             	movzbl (%rax),%eax
    38e9:	0f b6 c0             	movzbl %al,%eax
    38ec:	c1 e0 08             	shl    $0x8,%eax
    38ef:	01 45 e0             	add    %eax,-0x20(%rbp)
    38f2:	48 8b 45 f8          	mov    -0x8(%rbp),%rax
    38f6:	0f b6 00             	movzbl (%rax),%eax
    38f9:	0f b6 c0             	movzbl %al,%eax
    38fc:	01 45 e0             	add    %eax,-0x20(%rbp)
    38ff:	8b 45 e4             	mov    -0x1c(%rbp),%eax
    3902:	29 45 e0             	sub    %eax,-0x20(%rbp)
    3905:	8b 45 dc             	mov    -0x24(%rbp),%eax
    3908:	29 45 e0             	sub    %eax,-0x20(%rbp)
    390b:	8b 45 dc             	mov    -0x24(%rbp),%eax
    390e:	c1 e8 0d             	shr    $0xd,%eax
    3911:	31 45 e0             	xor    %eax,-0x20(%rbp)
    3914:	8b 45 dc             	mov    -0x24(%rbp),%eax
    3917:	29 45 e4             	sub    %eax,-0x1c(%rbp)
    391a:	8b 45 e0             	mov    -0x20(%rbp),%eax
    391d:	29 45 e4             	sub    %eax,-0x1c(%rbp)
    3920:	8b 45 e0             	mov    -0x20(%rbp),%eax
    3923:	c1 e0 08             	shl    $0x8,%eax
    3926:	31 45 e4             	xor    %eax,-0x1c(%rbp)
    3929:	8b 45 e0             	mov    -0x20(%rbp),%eax
    392c:	29 45 dc             	sub    %eax,-0x24(%rbp)
    392f:	8b 45 e4             	mov    -0x1c(%rbp),%eax
    3932:	29 45 dc             	sub    %eax,-0x24(%rbp)
    3935:	8b 45 e4             	mov    -0x1c(%rbp),%eax
    3938:	c1 e8 0d             	shr    $0xd,%eax
    393b:	31 45 dc             	xor    %eax,-0x24(%rbp)
    393e:	8b 45 e4             	mov    -0x1c(%rbp),%eax
    3941:	29 45 e0             	sub    %eax,-0x20(%rbp)
    3944:	8b 45 dc             	mov    -0x24(%rbp),%eax
    3947:	29 45 e0             	sub    %eax,-0x20(%rbp)
    394a:	8b 45 dc             	mov    -0x24(%rbp),%eax
    394d:	c1 e8 0c             	shr    $0xc,%eax
    3950:	31 45 e0             	xor    %eax,-0x20(%rbp)
    3953:	8b 45 dc             	mov    -0x24(%rbp),%eax
    3956:	29 45 e4             	sub    %eax,-0x1c(%rbp)
    3959:	8b 45 e0             	mov    -0x20(%rbp),%eax
    395c:	29 45 e4             	sub    %eax,-0x1c(%rbp)
    395f:	8b 45 e0             	mov    -0x20(%rbp),%eax
    3962:	c1 e0 10             	shl    $0x10,%eax
    3965:	31 45 e4             	xor    %eax,-0x1c(%rbp)
    3968:	8b 45 e0             	mov    -0x20(%rbp),%eax
    396b:	29 45 dc             	sub    %eax,-0x24(%rbp)
    396e:	8b 45 e4             	mov    -0x1c(%rbp),%eax
    3971:	29 45 dc             	sub    %eax,-0x24(%rbp)
    3974:	8b 45 e4             	mov    -0x1c(%rbp),%eax
    3977:	c1 e8 05             	shr    $0x5,%eax
    397a:	31 45 dc             	xor    %eax,-0x24(%rbp)
    397d:	8b 45 e4             	mov    -0x1c(%rbp),%eax
    3980:	29 45 e0             	sub    %eax,-0x20(%rbp)
    3983:	8b 45 dc             	mov    -0x24(%rbp),%eax
    3986:	29 45 e0             	sub    %eax,-0x20(%rbp)
    3989:	8b 45 dc             	mov    -0x24(%rbp),%eax
    398c:	c1 e8 03             	shr    $0x3,%eax
    398f:	31 45 e0             	xor    %eax,-0x20(%rbp)
    3992:	8b 45 dc             	mov    -0x24(%rbp),%eax
    3995:	29 45 e4             	sub    %eax,-0x1c(%rbp)
    3998:	8b 45 e0             	mov    -0x20(%rbp),%eax
    399b:	29 45 e4             	sub    %eax,-0x1c(%rbp)
    399e:	8b 45 e0             	mov    -0x20(%rbp),%eax
    39a1:	c1 e0 0a             	shl    $0xa,%eax
    39a4:	31 45 e4             	xor    %eax,-0x1c(%rbp)
    39a7:	8b 45 e0             	mov    -0x20(%rbp),%eax
    39aa:	29 45 dc             	sub    %eax,-0x24(%rbp)
    39ad:	8b 45 e4             	mov    -0x1c(%rbp),%eax
    39b0:	29 45 dc             	sub    %eax,-0x24(%rbp)
    39b3:	8b 45 e4             	mov    -0x1c(%rbp),%eax
    39b6:	c1 e8 0f             	shr    $0xf,%eax
    39b9:	31 45 dc             	xor    %eax,-0x24(%rbp)
    39bc:	48 c7 45 f0 00 00 00 	movq   $0x0,-0x10(%rbp)
    39c3:	00 
    39c4:	48 8b 45 c8          	mov    -0x38(%rbp),%rax
    39c8:	48 8b 00             	mov    (%rax),%rax
    39cb:	48 85 c0             	test   %rax,%rax
    39ce:	0f 84 f0 00 00 00    	je     3ac4 <map_contains+0x4ce>
    39d4:	48 8b 45 c8          	mov    -0x38(%rbp),%rax
    39d8:	48 8b 00             	mov    (%rax),%rax
    39db:	48 8b 40 20          	mov    0x20(%rax),%rax
    39df:	8b 40 08             	mov    0x8(%rax),%eax
    39e2:	83 e8 01             	sub    $0x1,%eax
    39e5:	23 45 dc             	and    -0x24(%rbp),%eax
    39e8:	89 45 ec             	mov    %eax,-0x14(%rbp)
    39eb:	48 8b 45 c8          	mov    -0x38(%rbp),%rax
    39ef:	48 8b 00             	mov    (%rax),%rax
    39f2:	48 8b 40 20          	mov    0x20(%rax),%rax
    39f6:	48 8b 00             	mov    (%rax),%rax
    39f9:	8b 55 ec             	mov    -0x14(%rbp),%edx
    39fc:	48 c1 e2 04          	shl    $0x4,%rdx
    3a00:	48 01 d0             	add    %rdx,%rax
    3a03:	48 8b 00             	mov    (%rax),%rax
    3a06:	48 85 c0             	test   %rax,%rax
    3a09:	74 36                	je     3a41 <map_contains+0x44b>
    3a0b:	48 8b 45 c8          	mov    -0x38(%rbp),%rax
    3a0f:	48 8b 00             	mov    (%rax),%rax
    3a12:	48 8b 40 20          	mov    0x20(%rax),%rax
    3a16:	48 8b 00             	mov    (%rax),%rax
    3a19:	8b 55 ec             	mov    -0x14(%rbp),%edx
    3a1c:	48 c1 e2 04          	shl    $0x4,%rdx
    3a20:	48 01 d0             	add    %rdx,%rax
    3a23:	48 8b 10             	mov    (%rax),%rdx
    3a26:	48 8b 45 c8          	mov    -0x38(%rbp),%rax
    3a2a:	48 8b 00             	mov    (%rax),%rax
    3a2d:	48 8b 40 20          	mov    0x20(%rax),%rax
    3a31:	48 8b 40 20          	mov    0x20(%rax),%rax
    3a35:	48 f7 d8             	neg    %rax
    3a38:	48 01 d0             	add    %rdx,%rax
    3a3b:	48 89 45 f0          	mov    %rax,-0x10(%rbp)
    3a3f:	eb 7c                	jmp    3abd <map_contains+0x4c7>
    3a41:	48 c7 45 f0 00 00 00 	movq   $0x0,-0x10(%rbp)
    3a48:	00 
    3a49:	eb 72                	jmp    3abd <map_contains+0x4c7>
    3a4b:	48 8b 45 f0          	mov    -0x10(%rbp),%rax
    3a4f:	8b 40 54             	mov    0x54(%rax),%eax
    3a52:	39 45 dc             	cmp    %eax,-0x24(%rbp)
    3a55:	75 2e                	jne    3a85 <map_contains+0x48f>
    3a57:	48 8b 45 f0          	mov    -0x10(%rbp),%rax
    3a5b:	8b 40 50             	mov    0x50(%rax),%eax
    3a5e:	89 c0                	mov    %eax,%eax
    3a60:	48 39 45 b8          	cmp    %rax,-0x48(%rbp)
    3a64:	75 1f                	jne    3a85 <map_contains+0x48f>
    3a66:	48 8b 45 f0          	mov    -0x10(%rbp),%rax
    3a6a:	48 8b 40 48          	mov    0x48(%rax),%rax
    3a6e:	48 8b 55 b8          	mov    -0x48(%rbp),%rdx
    3a72:	48 8b 4d c0          	mov    -0x40(%rbp),%rcx
    3a76:	48 89 ce             	mov    %rcx,%rsi
    3a79:	48 89 c7             	mov    %rax,%rdi
    3a7c:	e8 df d7 ff ff       	call   1260 <memcmp@plt>
    3a81:	85 c0                	test   %eax,%eax
    3a83:	74 3f                	je     3ac4 <map_contains+0x4ce>
    3a85:	48 8b 45 f0          	mov    -0x10(%rbp),%rax
    3a89:	48 8b 40 40          	mov    0x40(%rax),%rax
    3a8d:	48 85 c0             	test   %rax,%rax
    3a90:	74 23                	je     3ab5 <map_contains+0x4bf>
    3a92:	48 8b 45 f0          	mov    -0x10(%rbp),%rax
    3a96:	48 8b 50 40          	mov    0x40(%rax),%rdx
    3a9a:	48 8b 45 c8          	mov    -0x38(%rbp),%rax
    3a9e:	48 8b 00             	mov    (%rax),%rax
    3aa1:	48 8b 40 20          	mov    0x20(%rax),%rax
    3aa5:	48 8b 40 20          	mov    0x20(%rax),%rax
    3aa9:	48 f7 d8             	neg    %rax
    3aac:	48 01 d0             	add    %rdx,%rax
    3aaf:	48 89 45 f0          	mov    %rax,-0x10(%rbp)
    3ab3:	eb 08                	jmp    3abd <map_contains+0x4c7>
    3ab5:	48 c7 45 f0 00 00 00 	movq   $0x0,-0x10(%rbp)
    3abc:	00 
    3abd:	48 83 7d f0 00       	cmpq   $0x0,-0x10(%rbp)
    3ac2:	75 87                	jne    3a4b <map_contains+0x455>
    3ac4:	48 83 7d f0 00       	cmpq   $0x0,-0x10(%rbp)
    3ac9:	0f 95 c0             	setne  %al
    3acc:	0f b6 c0             	movzbl %al,%eax
    3acf:	c9                   	leave
    3ad0:	c3                   	ret

0000000000003ad1 <map_free>:
    3ad1:	f3 0f 1e fa          	endbr64
    3ad5:	55                   	push   %rbp
    3ad6:	48 89 e5             	mov    %rsp,%rbp
    3ad9:	48 83 ec 40          	sub    $0x40,%rsp
    3add:	48 89 7d c8          	mov    %rdi,-0x38(%rbp)
    3ae1:	48 8b 45 c8          	mov    -0x38(%rbp),%rax
    3ae5:	48 8b 00             	mov    (%rax),%rax
    3ae8:	48 89 45 e0          	mov    %rax,-0x20(%rbp)
    3aec:	48 8b 45 c8          	mov    -0x38(%rbp),%rax
    3af0:	48 8b 00             	mov    (%rax),%rax
    3af3:	48 85 c0             	test   %rax,%rax
    3af6:	74 0d                	je     3b05 <map_free+0x34>
    3af8:	48 8b 45 c8          	mov    -0x38(%rbp),%rax
    3afc:	48 8b 00             	mov    (%rax),%rax
    3aff:	48 8b 40 30          	mov    0x30(%rax),%rax
    3b03:	eb 05                	jmp    3b0a <map_free+0x39>
    3b05:	b8 00 00 00 00       	mov    $0x0,%eax
    3b0a:	48 89 45 e8          	mov    %rax,-0x18(%rbp)
    3b0e:	e9 20 02 00 00       	jmp    3d33 <map_free+0x262>
    3b13:	48 8b 45 e0          	mov    -0x20(%rbp),%rax
    3b17:	48 83 c0 20          	add    $0x20,%rax
    3b1b:	48 89 45 f0          	mov    %rax,-0x10(%rbp)
    3b1f:	48 8b 45 f0          	mov    -0x10(%rbp),%rax
    3b23:	48 8b 40 08          	mov    0x8(%rax),%rax
    3b27:	48 85 c0             	test   %rax,%rax
    3b2a:	75 46                	jne    3b72 <map_free+0xa1>
    3b2c:	48 8b 45 f0          	mov    -0x10(%rbp),%rax
    3b30:	48 8b 40 10          	mov    0x10(%rax),%rax
    3b34:	48 85 c0             	test   %rax,%rax
    3b37:	75 39                	jne    3b72 <map_free+0xa1>
    3b39:	48 8b 45 c8          	mov    -0x38(%rbp),%rax
    3b3d:	48 8b 00             	mov    (%rax),%rax
    3b40:	48 8b 40 20          	mov    0x20(%rax),%rax
    3b44:	48 8b 00             	mov    (%rax),%rax
    3b47:	48 89 c7             	mov    %rax,%rdi
    3b4a:	e8 51 d6 ff ff       	call   11a0 <free@plt>
    3b4f:	48 8b 45 c8          	mov    -0x38(%rbp),%rax
    3b53:	48 8b 00             	mov    (%rax),%rax
    3b56:	48 8b 40 20          	mov    0x20(%rax),%rax
    3b5a:	48 89 c7             	mov    %rax,%rdi
    3b5d:	e8 3e d6 ff ff       	call   11a0 <free@plt>
    3b62:	48 8b 45 c8          	mov    -0x38(%rbp),%rax
    3b66:	48 c7 00 00 00 00 00 	movq   $0x0,(%rax)
    3b6d:	e9 74 01 00 00       	jmp    3ce6 <map_free+0x215>
    3b72:	48 8b 45 c8          	mov    -0x38(%rbp),%rax
    3b76:	48 8b 00             	mov    (%rax),%rax
    3b79:	48 8b 40 20          	mov    0x20(%rax),%rax
    3b7d:	48 8b 40 18          	mov    0x18(%rax),%rax
    3b81:	48 39 45 f0          	cmp    %rax,-0x10(%rbp)
    3b85:	75 2c                	jne    3bb3 <map_free+0xe2>
    3b87:	48 8b 45 f0          	mov    -0x10(%rbp),%rax
    3b8b:	48 8b 50 08          	mov    0x8(%rax),%rdx
    3b8f:	48 8b 45 c8          	mov    -0x38(%rbp),%rax
    3b93:	48 8b 00             	mov    (%rax),%rax
    3b96:	48 8b 40 20          	mov    0x20(%rax),%rax
    3b9a:	48 8b 40 20          	mov    0x20(%rax),%rax
    3b9e:	48 89 c1             	mov    %rax,%rcx
    3ba1:	48 8b 45 c8          	mov    -0x38(%rbp),%rax
    3ba5:	48 8b 00             	mov    (%rax),%rax
    3ba8:	48 8b 40 20          	mov    0x20(%rax),%rax
    3bac:	48 01 ca             	add    %rcx,%rdx
    3baf:	48 89 50 18          	mov    %rdx,0x18(%rax)
    3bb3:	48 8b 45 f0          	mov    -0x10(%rbp),%rax
    3bb7:	48 8b 40 08          	mov    0x8(%rax),%rax
    3bbb:	48 85 c0             	test   %rax,%rax
    3bbe:	74 28                	je     3be8 <map_free+0x117>
    3bc0:	48 8b 45 f0          	mov    -0x10(%rbp),%rax
    3bc4:	48 8b 50 08          	mov    0x8(%rax),%rdx
    3bc8:	48 8b 45 c8          	mov    -0x38(%rbp),%rax
    3bcc:	48 8b 00             	mov    (%rax),%rax
    3bcf:	48 8b 40 20          	mov    0x20(%rax),%rax
    3bd3:	48 8b 40 20          	mov    0x20(%rax),%rax
    3bd7:	48 01 c2             	add    %rax,%rdx
    3bda:	48 8b 45 f0          	mov    -0x10(%rbp),%rax
    3bde:	48 8b 40 10          	mov    0x10(%rax),%rax
    3be2:	48 89 42 10          	mov    %rax,0x10(%rdx)
    3be6:	eb 0f                	jmp    3bf7 <map_free+0x126>
    3be8:	48 8b 45 f0          	mov    -0x10(%rbp),%rax
    3bec:	48 8b 50 10          	mov    0x10(%rax),%rdx
    3bf0:	48 8b 45 c8          	mov    -0x38(%rbp),%rax
    3bf4:	48 89 10             	mov    %rdx,(%rax)
    3bf7:	48 8b 45 f0          	mov    -0x10(%rbp),%rax
    3bfb:	48 8b 40 10          	mov    0x10(%rax),%rax
    3bff:	48 85 c0             	test   %rax,%rax
    3c02:	74 26                	je     3c2a <map_free+0x159>
    3c04:	48 8b 45 f0          	mov    -0x10(%rbp),%rax
    3c08:	48 8b 50 10          	mov    0x10(%rax),%rdx
    3c0c:	48 8b 45 c8          	mov    -0x38(%rbp),%rax
    3c10:	48 8b 00             	mov    (%rax),%rax
    3c13:	48 8b 40 20          	mov    0x20(%rax),%rax
    3c17:	48 8b 40 20          	mov    0x20(%rax),%rax
    3c1b:	48 01 c2             	add    %rax,%rdx
    3c1e:	48 8b 45 f0          	mov    -0x10(%rbp),%rax
    3c22:	48 8b 40 08          	mov    0x8(%rax),%rax
    3c26:	48 89 42 08          	mov    %rax,0x8(%rdx)
    3c2a:	48 8b 45 f0          	mov    -0x10(%rbp),%rax
    3c2e:	8b 50 34             	mov    0x34(%rax),%edx
    3c31:	48 8b 45 c8          	mov    -0x38(%rbp),%rax
    3c35:	48 8b 00             	mov    (%rax),%rax
    3c38:	48 8b 40 20          	mov    0x20(%rax),%rax
    3c3c:	8b 40 08             	mov    0x8(%rax),%eax
    3c3f:	83 e8 01             	sub    $0x1,%eax
    3c42:	21 d0                	and    %edx,%eax
    3c44:	89 45 dc             	mov    %eax,-0x24(%rbp)
    3c47:	48 8b 45 c8          	mov    -0x38(%rbp),%rax
    3c4b:	48 8b 00             	mov    (%rax),%rax
    3c4e:	48 8b 40 20          	mov    0x20(%rax),%rax
    3c52:	48 8b 00             	mov    (%rax),%rax
    3c55:	8b 55 dc             	mov    -0x24(%rbp),%edx
    3c58:	48 c1 e2 04          	shl    $0x4,%rdx
    3c5c:	48 01 d0             	add    %rdx,%rax
    3c5f:	48 89 45 f8          	mov    %rax,-0x8(%rbp)
    3c63:	48 8b 45 f8          	mov    -0x8(%rbp),%rax
    3c67:	8b 40 08             	mov    0x8(%rax),%eax
    3c6a:	8d 50 ff             	lea    -0x1(%rax),%edx
    3c6d:	48 8b 45 f8          	mov    -0x8(%rbp),%rax
    3c71:	89 50 08             	mov    %edx,0x8(%rax)
    3c74:	48 8b 45 f8          	mov    -0x8(%rbp),%rax
    3c78:	48 8b 00             	mov    (%rax),%rax
    3c7b:	48 39 45 f0          	cmp    %rax,-0x10(%rbp)
    3c7f:	75 0f                	jne    3c90 <map_free+0x1bf>
    3c81:	48 8b 45 f0          	mov    -0x10(%rbp),%rax
    3c85:	48 8b 50 20          	mov    0x20(%rax),%rdx
    3c89:	48 8b 45 f8          	mov    -0x8(%rbp),%rax
    3c8d:	48 89 10             	mov    %rdx,(%rax)
    3c90:	48 8b 45 f0          	mov    -0x10(%rbp),%rax
    3c94:	48 8b 40 18          	mov    0x18(%rax),%rax
    3c98:	48 85 c0             	test   %rax,%rax
    3c9b:	74 14                	je     3cb1 <map_free+0x1e0>
    3c9d:	48 8b 45 f0          	mov    -0x10(%rbp),%rax
    3ca1:	48 8b 40 18          	mov    0x18(%rax),%rax
    3ca5:	48 8b 55 f0          	mov    -0x10(%rbp),%rdx
    3ca9:	48 8b 52 20          	mov    0x20(%rdx),%rdx
    3cad:	48 89 50 20          	mov    %rdx,0x20(%rax)
    3cb1:	48 8b 45 f0          	mov    -0x10(%rbp),%rax
    3cb5:	48 8b 40 20          	mov    0x20(%rax),%rax
    3cb9:	48 85 c0             	test   %rax,%rax
    3cbc:	74 14                	je     3cd2 <map_free+0x201>
    3cbe:	48 8b 45 f0          	mov    -0x10(%rbp),%rax
    3cc2:	48 8b 40 20          	mov    0x20(%rax),%rax
    3cc6:	48 8b 55 f0          	mov    -0x10(%rbp),%rdx
    3cca:	48 8b 52 18          	mov    0x18(%rdx),%rdx
    3cce:	48 89 50 18          	mov    %rdx,0x18(%rax)
    3cd2:	48 8b 45 c8          	mov    -0x38(%rbp),%rax
    3cd6:	48 8b 00             	mov    (%rax),%rax
    3cd9:	48 8b 40 20          	mov    0x20(%rax),%rax
    3cdd:	8b 50 10             	mov    0x10(%rax),%edx
    3ce0:	83 ea 01             	sub    $0x1,%edx
    3ce3:	89 50 10             	mov    %edx,0x10(%rax)
    3ce6:	48 8b 45 e0          	mov    -0x20(%rbp),%rax
    3cea:	48 8b 00             	mov    (%rax),%rax
    3ced:	48 89 c7             	mov    %rax,%rdi
    3cf0:	e8 ab d4 ff ff       	call   11a0 <free@plt>
    3cf5:	48 8b 45 e0          	mov    -0x20(%rbp),%rax
    3cf9:	48 8b 40 10          	mov    0x10(%rax),%rax
    3cfd:	48 89 c7             	mov    %rax,%rdi
    3d00:	e8 9b d4 ff ff       	call   11a0 <free@plt>
    3d05:	48 8b 45 e0          	mov    -0x20(%rbp),%rax
    3d09:	48 89 c7             	mov    %rax,%rdi
    3d0c:	e8 8f d4 ff ff       	call   11a0 <free@plt>
    3d11:	48 8b 45 e8          	mov    -0x18(%rbp),%rax
    3d15:	48 89 45 e0          	mov    %rax,-0x20(%rbp)
    3d19:	48 83 7d e8 00       	cmpq   $0x0,-0x18(%rbp)
    3d1e:	74 0a                	je     3d2a <map_free+0x259>
    3d20:	48 8b 45 e8          	mov    -0x18(%rbp),%rax
    3d24:	48 8b 40 30          	mov    0x30(%rax),%rax
    3d28:	eb 05                	jmp    3d2f <map_free+0x25e>
    3d2a:	b8 00 00 00 00       	mov    $0x0,%eax
    3d2f:	48 89 45 e8          	mov    %rax,-0x18(%rbp)
    3d33:	48 83 7d e0 00       	cmpq   $0x0,-0x20(%rbp)
    3d38:	0f 85 d5 fd ff ff    	jne    3b13 <map_free+0x42>
    3d3e:	48 8b 45 c8          	mov    -0x38(%rbp),%rax
    3d42:	48 89 c7             	mov    %rax,%rdi
    3d45:	e8 56 d4 ff ff       	call   11a0 <free@plt>
    3d4a:	90                   	nop
    3d4b:	c9                   	leave
    3d4c:	c3                   	ret

0000000000003d4d <map_remove>:
    3d4d:	f3 0f 1e fa          	endbr64
    3d51:	55                   	push   %rbp
    3d52:	48 89 e5             	mov    %rsp,%rbp
    3d55:	48 83 ec 60          	sub    $0x60,%rsp
    3d59:	48 89 7d b8          	mov    %rdi,-0x48(%rbp)
    3d5d:	48 89 75 b0          	mov    %rsi,-0x50(%rbp)
    3d61:	48 89 55 a8          	mov    %rdx,-0x58(%rbp)
    3d65:	48 c7 45 e0 00 00 00 	movq   $0x0,-0x20(%rbp)
    3d6c:	00 
    3d6d:	48 8b 45 b8          	mov    -0x48(%rbp),%rax
    3d71:	48 8b 00             	mov    (%rax),%rax
    3d74:	48 85 c0             	test   %rax,%rax
    3d77:	0f 84 9e 04 00 00    	je     421b <map_remove+0x4ce>
    3d7d:	48 8b 45 b0          	mov    -0x50(%rbp),%rax
    3d81:	48 89 45 e8          	mov    %rax,-0x18(%rbp)
    3d85:	c7 45 c8 ef be ed fe 	movl   $0xfeedbeef,-0x38(%rbp)
    3d8c:	c7 45 d0 b9 79 37 9e 	movl   $0x9e3779b9,-0x30(%rbp)
    3d93:	8b 45 d0             	mov    -0x30(%rbp),%eax
    3d96:	89 45 cc             	mov    %eax,-0x34(%rbp)
    3d99:	48 8b 45 a8          	mov    -0x58(%rbp),%rax
    3d9d:	89 45 d4             	mov    %eax,-0x2c(%rbp)
    3da0:	e9 a0 01 00 00       	jmp    3f45 <map_remove+0x1f8>
    3da5:	48 8b 45 e8          	mov    -0x18(%rbp),%rax
    3da9:	0f b6 00             	movzbl (%rax),%eax
    3dac:	0f b6 c0             	movzbl %al,%eax
    3daf:	48 8b 55 e8          	mov    -0x18(%rbp),%rdx
    3db3:	48 83 c2 01          	add    $0x1,%rdx
    3db7:	0f b6 12             	movzbl (%rdx),%edx
    3dba:	0f b6 d2             	movzbl %dl,%edx
    3dbd:	c1 e2 08             	shl    $0x8,%edx
    3dc0:	01 c2                	add    %eax,%edx
    3dc2:	48 8b 45 e8          	mov    -0x18(%rbp),%rax
    3dc6:	48 83 c0 02          	add    $0x2,%rax
    3dca:	0f b6 00             	movzbl (%rax),%eax
    3dcd:	0f b6 c0             	movzbl %al,%eax
    3dd0:	c1 e0 10             	shl    $0x10,%eax
    3dd3:	01 c2                	add    %eax,%edx
    3dd5:	48 8b 45 e8          	mov    -0x18(%rbp),%rax
    3dd9:	48 83 c0 03          	add    $0x3,%rax
    3ddd:	0f b6 00             	movzbl (%rax),%eax
    3de0:	0f b6 c0             	movzbl %al,%eax
    3de3:	c1 e0 18             	shl    $0x18,%eax
    3de6:	01 d0                	add    %edx,%eax
    3de8:	01 45 cc             	add    %eax,-0x34(%rbp)
    3deb:	48 8b 45 e8          	mov    -0x18(%rbp),%rax
    3def:	48 83 c0 04          	add    $0x4,%rax
    3df3:	0f b6 00             	movzbl (%rax),%eax
    3df6:	0f b6 c0             	movzbl %al,%eax
    3df9:	48 8b 55 e8          	mov    -0x18(%rbp),%rdx
    3dfd:	48 83 c2 05          	add    $0x5,%rdx
    3e01:	0f b6 12             	movzbl (%rdx),%edx
    3e04:	0f b6 d2             	movzbl %dl,%edx
    3e07:	c1 e2 08             	shl    $0x8,%edx
    3e0a:	01 c2                	add    %eax,%edx
    3e0c:	48 8b 45 e8          	mov    -0x18(%rbp),%rax
    3e10:	48 83 c0 06          	add    $0x6,%rax
    3e14:	0f b6 00             	movzbl (%rax),%eax
    3e17:	0f b6 c0             	movzbl %al,%eax
    3e1a:	c1 e0 10             	shl    $0x10,%eax
    3e1d:	01 c2                	add    %eax,%edx
    3e1f:	48 8b 45 e8          	mov    -0x18(%rbp),%rax
    3e23:	48 83 c0 07          	add    $0x7,%rax
    3e27:	0f b6 00             	movzbl (%rax),%eax
    3e2a:	0f b6 c0             	movzbl %al,%eax
    3e2d:	c1 e0 18             	shl    $0x18,%eax
    3e30:	01 d0                	add    %edx,%eax
    3e32:	01 45 d0             	add    %eax,-0x30(%rbp)
    3e35:	48 8b 45 e8          	mov    -0x18(%rbp),%rax
    3e39:	48 83 c0 08          	add    $0x8,%rax
    3e3d:	0f b6 00             	movzbl (%rax),%eax
    3e40:	0f b6 c0             	movzbl %al,%eax
    3e43:	48 8b 55 e8          	mov    -0x18(%rbp),%rdx
    3e47:	48 83 c2 09          	add    $0x9,%rdx
    3e4b:	0f b6 12             	movzbl (%rdx),%edx
    3e4e:	0f b6 d2             	movzbl %dl,%edx
    3e51:	c1 e2 08             	shl    $0x8,%edx
    3e54:	01 c2                	add    %eax,%edx
    3e56:	48 8b 45 e8          	mov    -0x18(%rbp),%rax
    3e5a:	48 83 c0 0a          	add    $0xa,%rax
    3e5e:	0f b6 00             	movzbl (%rax),%eax
    3e61:	0f b6 c0             	movzbl %al,%eax
    3e64:	c1 e0 10             	shl    $0x10,%eax
    3e67:	01 c2                	add    %eax,%edx
    3e69:	48 8b 45 e8          	mov    -0x18(%rbp),%rax
    3e6d:	48 83 c0 0b          	add    $0xb,%rax
    3e71:	0f b6 00             	movzbl (%rax),%eax
    3e74:	0f b6 c0             	movzbl %al,%eax
    3e77:	c1 e0 18             	shl    $0x18,%eax
    3e7a:	01 d0                	add    %edx,%eax
    3e7c:	01 45 c8             	add    %eax,-0x38(%rbp)
    3e7f:	8b 45 d0             	mov    -0x30(%rbp),%eax
    3e82:	29 45 cc             	sub    %eax,-0x34(%rbp)
    3e85:	8b 45 c8             	mov    -0x38(%rbp),%eax
    3e88:	29 45 cc             	sub    %eax,-0x34(%rbp)
    3e8b:	8b 45 c8             	mov    -0x38(%rbp),%eax
    3e8e:	c1 e8 0d             	shr    $0xd,%eax
    3e91:	31 45 cc             	xor    %eax,-0x34(%rbp)
    3e94:	8b 45 c8             	mov    -0x38(%rbp),%eax
    3e97:	29 45 d0             	sub    %eax,-0x30(%rbp)
    3e9a:	8b 45 cc             	mov    -0x34(%rbp),%eax
    3e9d:	29 45 d0             	sub    %eax,-0x30(%rbp)
    3ea0:	8b 45 cc             	mov    -0x34(%rbp),%eax
    3ea3:	c1 e0 08             	shl    $0x8,%eax
    3ea6:	31 45 d0             	xor    %eax,-0x30(%rbp)
    3ea9:	8b 45 cc             	mov    -0x34(%rbp),%eax
    3eac:	29 45 c8             	sub    %eax,-0x38(%rbp)
    3eaf:	8b 45 d0             	mov    -0x30(%rbp),%eax
    3eb2:	29 45 c8             	sub    %eax,-0x38(%rbp)
    3eb5:	8b 45 d0             	mov    -0x30(%rbp),%eax
    3eb8:	c1 e8 0d             	shr    $0xd,%eax
    3ebb:	31 45 c8             	xor    %eax,-0x38(%rbp)
    3ebe:	8b 45 d0             	mov    -0x30(%rbp),%eax
    3ec1:	29 45 cc             	sub    %eax,-0x34(%rbp)
    3ec4:	8b 45 c8             	mov    -0x38(%rbp),%eax
    3ec7:	29 45 cc             	sub    %eax,-0x34(%rbp)
    3eca:	8b 45 c8             	mov    -0x38(%rbp),%eax
    3ecd:	c1 e8 0c             	shr    $0xc,%eax
    3ed0:	31 45 cc             	xor    %eax,-0x34(%rbp)
    3ed3:	8b 45 c8             	mov    -0x38(%rbp),%eax
    3ed6:	29 45 d0             	sub    %eax,-0x30(%rbp)
    3ed9:	8b 45 cc             	mov    -0x34(%rbp),%eax
    3edc:	29 45 d0             	sub    %eax,-0x30(%rbp)
    3edf:	8b 45 cc             	mov    -0x34(%rbp),%eax
    3ee2:	c1 e0 10             	shl    $0x10,%eax
    3ee5:	31 45 d0             	xor    %eax,-0x30(%rbp)
    3ee8:	8b 45 cc             	mov    -0x34(%rbp),%eax
    3eeb:	29 45 c8             	sub    %eax,-0x38(%rbp)
    3eee:	8b 45 d0             	mov    -0x30(%rbp),%eax
    3ef1:	29 45 c8             	sub    %eax,-0x38(%rbp)
    3ef4:	8b 45 d0             	mov    -0x30(%rbp),%eax
    3ef7:	c1 e8 05             	shr    $0x5,%eax
    3efa:	31 45 c8             	xor    %eax,-0x38(%rbp)
    3efd:	8b 45 d0             	mov    -0x30(%rbp),%eax
    3f00:	29 45 cc             	sub    %eax,-0x34(%rbp)
    3f03:	8b 45 c8             	mov    -0x38(%rbp),%eax
    3f06:	29 45 cc             	sub    %eax,-0x34(%rbp)
    3f09:	8b 45 c8             	mov    -0x38(%rbp),%eax
    3f0c:	c1 e8 03             	shr    $0x3,%eax
    3f0f:	31 45 cc             	xor    %eax,-0x34(%rbp)
    3f12:	8b 45 c8             	mov    -0x38(%rbp),%eax
    3f15:	29 45 d0             	sub    %eax,-0x30(%rbp)
    3f18:	8b 45 cc             	mov    -0x34(%rbp),%eax
    3f1b:	29 45 d0             	sub    %eax,-0x30(%rbp)
    3f1e:	8b 45 cc             	mov    -0x34(%rbp),%eax
    3f21:	c1 e0 0a             	shl    $0xa,%eax
    3f24:	31 45 d0             	xor    %eax,-0x30(%rbp)
    3f27:	8b 45 cc             	mov    -0x34(%rbp),%eax
    3f2a:	29 45 c8             	sub    %eax,-0x38(%rbp)
    3f2d:	8b 45 d0             	mov    -0x30(%rbp),%eax
    3f30:	29 45 c8             	sub    %eax,-0x38(%rbp)
    3f33:	8b 45 d0             	mov    -0x30(%rbp),%eax
    3f36:	c1 e8 0f             	shr    $0xf,%eax
    3f39:	31 45 c8             	xor    %eax,-0x38(%rbp)
    3f3c:	48 83 45 e8 0c       	addq   $0xc,-0x18(%rbp)
    3f41:	83 6d d4 0c          	subl   $0xc,-0x2c(%rbp)
    3f45:	83 7d d4 0b          	cmpl   $0xb,-0x2c(%rbp)
    3f49:	0f 87 56 fe ff ff    	ja     3da5 <map_remove+0x58>
    3f4f:	48 8b 45 a8          	mov    -0x58(%rbp),%rax
    3f53:	01 45 c8             	add    %eax,-0x38(%rbp)
    3f56:	83 7d d4 0b          	cmpl   $0xb,-0x2c(%rbp)
    3f5a:	0f 87 f6 00 00 00    	ja     4056 <map_remove+0x309>
    3f60:	8b 45 d4             	mov    -0x2c(%rbp),%eax
    3f63:	48 8d 14 85 00 00 00 	lea    0x0(,%rax,4),%rdx
    3f6a:	00 
    3f6b:	48 8d 05 6a 13 00 00 	lea    0x136a(%rip),%rax        # 52dc <_IO_stdin_used+0x2dc>
    3f72:	8b 04 02             	mov    (%rdx,%rax,1),%eax
    3f75:	48 98                	cltq
    3f77:	48 8d 15 5e 13 00 00 	lea    0x135e(%rip),%rdx        # 52dc <_IO_stdin_used+0x2dc>
    3f7e:	48 01 d0             	add    %rdx,%rax
    3f81:	3e ff e0             	notrack jmp *%rax
    3f84:	48 8b 45 e8          	mov    -0x18(%rbp),%rax
    3f88:	48 83 c0 0a          	add    $0xa,%rax
    3f8c:	0f b6 00             	movzbl (%rax),%eax
    3f8f:	0f b6 c0             	movzbl %al,%eax
    3f92:	c1 e0 18             	shl    $0x18,%eax
    3f95:	01 45 c8             	add    %eax,-0x38(%rbp)
    3f98:	48 8b 45 e8          	mov    -0x18(%rbp),%rax
    3f9c:	48 83 c0 09          	add    $0x9,%rax
    3fa0:	0f b6 00             	movzbl (%rax),%eax
    3fa3:	0f b6 c0             	movzbl %al,%eax
    3fa6:	c1 e0 10             	shl    $0x10,%eax
    3fa9:	01 45 c8             	add    %eax,-0x38(%rbp)
    3fac:	48 8b 45 e8          	mov    -0x18(%rbp),%rax
    3fb0:	48 83 c0 08          	add    $0x8,%rax
    3fb4:	0f b6 00             	movzbl (%rax),%eax
    3fb7:	0f b6 c0             	movzbl %al,%eax
    3fba:	c1 e0 08             	shl    $0x8,%eax
    3fbd:	01 45 c8             	add    %eax,-0x38(%rbp)
    3fc0:	48 8b 45 e8          	mov    -0x18(%rbp),%rax
    3fc4:	48 83 c0 07          	add    $0x7,%rax
    3fc8:	0f b6 00             	movzbl (%rax),%eax
    3fcb:	0f b6 c0             	movzbl %al,%eax
    3fce:	c1 e0 18             	shl    $0x18,%eax
    3fd1:	01 45 d0             	add    %eax,-0x30(%rbp)
    3fd4:	48 8b 45 e8          	mov    -0x18(%rbp),%rax
    3fd8:	48 83 c0 06          	add    $0x6,%rax
    3fdc:	0f b6 00             	movzbl (%rax),%eax
    3fdf:	0f b6 c0             	movzbl %al,%eax
    3fe2:	c1 e0 10             	shl    $0x10,%eax
    3fe5:	01 45 d0             	add    %eax,-0x30(%rbp)
    3fe8:	48 8b 45 e8          	mov    -0x18(%rbp),%rax
    3fec:	48 83 c0 05          	add    $0x5,%rax
    3ff0:	0f b6 00             	movzbl (%rax),%eax
    3ff3:	0f b6 c0             	movzbl %al,%eax
    3ff6:	c1 e0 08             	shl    $0x8,%eax
    3ff9:	01 45 d0             	add    %eax,-0x30(%rbp)
    3ffc:	48 8b 45 e8          	mov    -0x18(%rbp),%rax
    4000:	48 83 c0 04          	add    $0x4,%rax
    4004:	0f b6 00             	movzbl (%rax),%eax
    4007:	0f b6 c0             	movzbl %al,%eax
    400a:	01 45 d0             	add    %eax,-0x30(%rbp)
    400d:	48 8b 45 e8          	mov    -0x18(%rbp),%rax
    4011:	48 83 c0 03          	add    $0x3,%rax
    4015:	0f b6 00             	movzbl (%rax),%eax
    4018:	0f b6 c0             	movzbl %al,%eax
    401b:	c1 e0 18             	shl    $0x18,%eax
    401e:	01 45 cc             	add    %eax,-0x34(%rbp)
    4021:	48 8b 45 e8          	mov    -0x18(%rbp),%rax
    4025:	48 83 c0 02          	add    $0x2,%rax
    4029:	0f b6 00             	movzbl (%rax),%eax
    402c:	0f b6 c0             	movzbl %al,%eax
    402f:	c1 e0 10             	shl    $0x10,%eax
    4032:	01 45 cc             	add    %eax,-0x34(%rbp)
    4035:	48 8b 45 e8          	mov    -0x18(%rbp),%rax
    4039:	48 83 c0 01          	add    $0x1,%rax
    403d:	0f b6 00             	movzbl (%rax),%eax
    4040:	0f b6 c0             	movzbl %al,%eax
    4043:	c1 e0 08             	shl    $0x8,%eax
    4046:	01 45 cc             	add    %eax,-0x34(%rbp)
    4049:	48 8b 45 e8          	mov    -0x18(%rbp),%rax
    404d:	0f b6 00             	movzbl (%rax),%eax
    4050:	0f b6 c0             	movzbl %al,%eax
    4053:	01 45 cc             	add    %eax,-0x34(%rbp)
    4056:	8b 45 d0             	mov    -0x30(%rbp),%eax
    4059:	29 45 cc             	sub    %eax,-0x34(%rbp)
    405c:	8b 45 c8             	mov    -0x38(%rbp),%eax
    405f:	29 45 cc             	sub    %eax,-0x34(%rbp)
    4062:	8b 45 c8             	mov    -0x38(%rbp),%eax
    4065:	c1 e8 0d             	shr    $0xd,%eax
    4068:	31 45 cc             	xor    %eax,-0x34(%rbp)
    406b:	8b 45 c8             	mov    -0x38(%rbp),%eax
    406e:	29 45 d0             	sub    %eax,-0x30(%rbp)
    4071:	8b 45 cc             	mov    -0x34(%rbp),%eax
    4074:	29 45 d0             	sub    %eax,-0x30(%rbp)
    4077:	8b 45 cc             	mov    -0x34(%rbp),%eax
    407a:	c1 e0 08             	shl    $0x8,%eax
    407d:	31 45 d0             	xor    %eax,-0x30(%rbp)
    4080:	8b 45 cc             	mov    -0x34(%rbp),%eax
    4083:	29 45 c8             	sub    %eax,-0x38(%rbp)
    4086:	8b 45 d0             	mov    -0x30(%rbp),%eax
    4089:	29 45 c8             	sub    %eax,-0x38(%rbp)
    408c:	8b 45 d0             	mov    -0x30(%rbp),%eax
    408f:	c1 e8 0d             	shr    $0xd,%eax
    4092:	31 45 c8             	xor    %eax,-0x38(%rbp)
    4095:	8b 45 d0             	mov    -0x30(%rbp),%eax
    4098:	29 45 cc             	sub    %eax,-0x34(%rbp)
    409b:	8b 45 c8             	mov    -0x38(%rbp),%eax
    409e:	29 45 cc             	sub    %eax,-0x34(%rbp)
    40a1:	8b 45 c8             	mov    -0x38(%rbp),%eax
    40a4:	c1 e8 0c             	shr    $0xc,%eax
    40a7:	31 45 cc             	xor    %eax,-0x34(%rbp)
    40aa:	8b 45 c8             	mov    -0x38(%rbp),%eax
    40ad:	29 45 d0             	sub    %eax,-0x30(%rbp)
    40b0:	8b 45 cc             	mov    -0x34(%rbp),%eax
    40b3:	29 45 d0             	sub    %eax,-0x30(%rbp)
    40b6:	8b 45 cc             	mov    -0x34(%rbp),%eax
    40b9:	c1 e0 10             	shl    $0x10,%eax
    40bc:	31 45 d0             	xor    %eax,-0x30(%rbp)
    40bf:	8b 45 cc             	mov    -0x34(%rbp),%eax
    40c2:	29 45 c8             	sub    %eax,-0x38(%rbp)
    40c5:	8b 45 d0             	mov    -0x30(%rbp),%eax
    40c8:	29 45 c8             	sub    %eax,-0x38(%rbp)
    40cb:	8b 45 d0             	mov    -0x30(%rbp),%eax
    40ce:	c1 e8 05             	shr    $0x5,%eax
    40d1:	31 45 c8             	xor    %eax,-0x38(%rbp)
    40d4:	8b 45 d0             	mov    -0x30(%rbp),%eax
    40d7:	29 45 cc             	sub    %eax,-0x34(%rbp)
    40da:	8b 45 c8             	mov    -0x38(%rbp),%eax
    40dd:	29 45 cc             	sub    %eax,-0x34(%rbp)
    40e0:	8b 45 c8             	mov    -0x38(%rbp),%eax
    40e3:	c1 e8 03             	shr    $0x3,%eax
    40e6:	31 45 cc             	xor    %eax,-0x34(%rbp)
    40e9:	8b 45 c8             	mov    -0x38(%rbp),%eax
    40ec:	29 45 d0             	sub    %eax,-0x30(%rbp)
    40ef:	8b 45 cc             	mov    -0x34(%rbp),%eax
    40f2:	29 45 d0             	sub    %eax,-0x30(%rbp)
    40f5:	8b 45 cc             	mov    -0x34(%rbp),%eax
    40f8:	c1 e0 0a             	shl    $0xa,%eax
    40fb:	31 45 d0             	xor    %eax,-0x30(%rbp)
    40fe:	8b 45 cc             	mov    -0x34(%rbp),%eax
    4101:	29 45 c8             	sub    %eax,-0x38(%rbp)
    4104:	8b 45 d0             	mov    -0x30(%rbp),%eax
    4107:	29 45 c8             	sub    %eax,-0x38(%rbp)
    410a:	8b 45 d0             	mov    -0x30(%rbp),%eax
    410d:	c1 e8 0f             	shr    $0xf,%eax
    4110:	31 45 c8             	xor    %eax,-0x38(%rbp)
    4113:	48 c7 45 e0 00 00 00 	movq   $0x0,-0x20(%rbp)
    411a:	00 
    411b:	48 8b 45 b8          	mov    -0x48(%rbp),%rax
    411f:	48 8b 00             	mov    (%rax),%rax
    4122:	48 85 c0             	test   %rax,%rax
    4125:	0f 84 f0 00 00 00    	je     421b <map_remove+0x4ce>
    412b:	48 8b 45 b8          	mov    -0x48(%rbp),%rax
    412f:	48 8b 00             	mov    (%rax),%rax
    4132:	48 8b 40 20          	mov    0x20(%rax),%rax
    4136:	8b 40 08             	mov    0x8(%rax),%eax
    4139:	83 e8 01             	sub    $0x1,%eax
    413c:	23 45 c8             	and    -0x38(%rbp),%eax
    413f:	89 45 d8             	mov    %eax,-0x28(%rbp)
    4142:	48 8b 45 b8          	mov    -0x48(%rbp),%rax
    4146:	48 8b 00             	mov    (%rax),%rax
    4149:	48 8b 40 20          	mov    0x20(%rax),%rax
    414d:	48 8b 00             	mov    (%rax),%rax
    4150:	8b 55 d8             	mov    -0x28(%rbp),%edx
    4153:	48 c1 e2 04          	shl    $0x4,%rdx
    4157:	48 01 d0             	add    %rdx,%rax
    415a:	48 8b 00             	mov    (%rax),%rax
    415d:	48 85 c0             	test   %rax,%rax
    4160:	74 36                	je     4198 <map_remove+0x44b>
    4162:	48 8b 45 b8          	mov    -0x48(%rbp),%rax
    4166:	48 8b 00             	mov    (%rax),%rax
    4169:	48 8b 40 20          	mov    0x20(%rax),%rax
    416d:	48 8b 00             	mov    (%rax),%rax
    4170:	8b 55 d8             	mov    -0x28(%rbp),%edx
    4173:	48 c1 e2 04          	shl    $0x4,%rdx
    4177:	48 01 d0             	add    %rdx,%rax
    417a:	48 8b 10             	mov    (%rax),%rdx
    417d:	48 8b 45 b8          	mov    -0x48(%rbp),%rax
    4181:	48 8b 00             	mov    (%rax),%rax
    4184:	48 8b 40 20          	mov    0x20(%rax),%rax
    4188:	48 8b 40 20          	mov    0x20(%rax),%rax
    418c:	48 f7 d8             	neg    %rax
    418f:	48 01 d0             	add    %rdx,%rax
    4192:	48 89 45 e0          	mov    %rax,-0x20(%rbp)
    4196:	eb 7c                	jmp    4214 <map_remove+0x4c7>
    4198:	48 c7 45 e0 00 00 00 	movq   $0x0,-0x20(%rbp)
    419f:	00 
    41a0:	eb 72                	jmp    4214 <map_remove+0x4c7>
    41a2:	48 8b 45 e0          	mov    -0x20(%rbp),%rax
    41a6:	8b 40 54             	mov    0x54(%rax),%eax
    41a9:	39 45 c8             	cmp    %eax,-0x38(%rbp)
    41ac:	75 2e                	jne    41dc <map_remove+0x48f>
    41ae:	48 8b 45 e0          	mov    -0x20(%rbp),%rax
    41b2:	8b 40 50             	mov    0x50(%rax),%eax
    41b5:	89 c0                	mov    %eax,%eax
    41b7:	48 39 45 a8          	cmp    %rax,-0x58(%rbp)
    41bb:	75 1f                	jne    41dc <map_remove+0x48f>
    41bd:	48 8b 45 e0          	mov    -0x20(%rbp),%rax
    41c1:	48 8b 40 48          	mov    0x48(%rax),%rax
    41c5:	48 8b 55 a8          	mov    -0x58(%rbp),%rdx
    41c9:	48 8b 4d b0          	mov    -0x50(%rbp),%rcx
    41cd:	48 89 ce             	mov    %rcx,%rsi
    41d0:	48 89 c7             	mov    %rax,%rdi
    41d3:	e8 88 d0 ff ff       	call   1260 <memcmp@plt>
    41d8:	85 c0                	test   %eax,%eax
    41da:	74 3f                	je     421b <map_remove+0x4ce>
    41dc:	48 8b 45 e0          	mov    -0x20(%rbp),%rax
    41e0:	48 8b 40 40          	mov    0x40(%rax),%rax
    41e4:	48 85 c0             	test   %rax,%rax
    41e7:	74 23                	je     420c <map_remove+0x4bf>
    41e9:	48 8b 45 e0          	mov    -0x20(%rbp),%rax
    41ed:	48 8b 50 40          	mov    0x40(%rax),%rdx
    41f1:	48 8b 45 b8          	mov    -0x48(%rbp),%rax
    41f5:	48 8b 00             	mov    (%rax),%rax
    41f8:	48 8b 40 20          	mov    0x20(%rax),%rax
    41fc:	48 8b 40 20          	mov    0x20(%rax),%rax
    4200:	48 f7 d8             	neg    %rax
    4203:	48 01 d0             	add    %rdx,%rax
    4206:	48 89 45 e0          	mov    %rax,-0x20(%rbp)
    420a:	eb 08                	jmp    4214 <map_remove+0x4c7>
    420c:	48 c7 45 e0 00 00 00 	movq   $0x0,-0x20(%rbp)
    4213:	00 
    4214:	48 83 7d e0 00       	cmpq   $0x0,-0x20(%rbp)
    4219:	75 87                	jne    41a2 <map_remove+0x455>
    421b:	48 83 7d e0 00       	cmpq   $0x0,-0x20(%rbp)
    4220:	0f 84 fe 01 00 00    	je     4424 <map_remove+0x6d7>
    4226:	48 8b 45 e0          	mov    -0x20(%rbp),%rax
    422a:	48 83 c0 20          	add    $0x20,%rax
    422e:	48 89 45 f0          	mov    %rax,-0x10(%rbp)
    4232:	48 8b 45 f0          	mov    -0x10(%rbp),%rax
    4236:	48 8b 40 08          	mov    0x8(%rax),%rax
    423a:	48 85 c0             	test   %rax,%rax
    423d:	75 46                	jne    4285 <map_remove+0x538>
    423f:	48 8b 45 f0          	mov    -0x10(%rbp),%rax
    4243:	48 8b 40 10          	mov    0x10(%rax),%rax
    4247:	48 85 c0             	test   %rax,%rax
    424a:	75 39                	jne    4285 <map_remove+0x538>
    424c:	48 8b 45 b8          	mov    -0x48(%rbp),%rax
    4250:	48 8b 00             	mov    (%rax),%rax
    4253:	48 8b 40 20          	mov    0x20(%rax),%rax
    4257:	48 8b 00             	mov    (%rax),%rax
    425a:	48 89 c7             	mov    %rax,%rdi
    425d:	e8 3e cf ff ff       	call   11a0 <free@plt>
    4262:	48 8b 45 b8          	mov    -0x48(%rbp),%rax
    4266:	48 8b 00             	mov    (%rax),%rax
    4269:	48 8b 40 20          	mov    0x20(%rax),%rax
    426d:	48 89 c7             	mov    %rax,%rdi
    4270:	e8 2b cf ff ff       	call   11a0 <free@plt>
    4275:	48 8b 45 b8          	mov    -0x48(%rbp),%rax
    4279:	48 c7 00 00 00 00 00 	movq   $0x0,(%rax)
    4280:	e9 74 01 00 00       	jmp    43f9 <map_remove+0x6ac>
    4285:	48 8b 45 b8          	mov    -0x48(%rbp),%rax
    4289:	48 8b 00             	mov    (%rax),%rax
    428c:	48 8b 40 20          	mov    0x20(%rax),%rax
    4290:	48 8b 40 18          	mov    0x18(%rax),%rax
    4294:	48 39 45 f0          	cmp    %rax,-0x10(%rbp)
    4298:	75 2c                	jne    42c6 <map_remove+0x579>
    429a:	48 8b 45 f0          	mov    -0x10(%rbp),%rax
    429e:	48 8b 50 08          	mov    0x8(%rax),%rdx
    42a2:	48 8b 45 b8          	mov    -0x48(%rbp),%rax
    42a6:	48 8b 00             	mov    (%rax),%rax
    42a9:	48 8b 40 20          	mov    0x20(%rax),%rax
    42ad:	48 8b 40 20          	mov    0x20(%rax),%rax
    42b1:	48 89 c1             	mov    %rax,%rcx
    42b4:	48 8b 45 b8          	mov    -0x48(%rbp),%rax
    42b8:	48 8b 00             	mov    (%rax),%rax
    42bb:	48 8b 40 20          	mov    0x20(%rax),%rax
    42bf:	48 01 ca             	add    %rcx,%rdx
    42c2:	48 89 50 18          	mov    %rdx,0x18(%rax)
    42c6:	48 8b 45 f0          	mov    -0x10(%rbp),%rax
    42ca:	48 8b 40 08          	mov    0x8(%rax),%rax
    42ce:	48 85 c0             	test   %rax,%rax
    42d1:	74 28                	je     42fb <map_remove+0x5ae>
    42d3:	48 8b 45 f0          	mov    -0x10(%rbp),%rax
    42d7:	48 8b 50 08          	mov    0x8(%rax),%rdx
    42db:	48 8b 45 b8          	mov    -0x48(%rbp),%rax
    42df:	48 8b 00             	mov    (%rax),%rax
    42e2:	48 8b 40 20          	mov    0x20(%rax),%rax
    42e6:	48 8b 40 20          	mov    0x20(%rax),%rax
    42ea:	48 01 c2             	add    %rax,%rdx
    42ed:	48 8b 45 f0          	mov    -0x10(%rbp),%rax
    42f1:	48 8b 40 10          	mov    0x10(%rax),%rax
    42f5:	48 89 42 10          	mov    %rax,0x10(%rdx)
    42f9:	eb 0f                	jmp    430a <map_remove+0x5bd>
    42fb:	48 8b 45 f0          	mov    -0x10(%rbp),%rax
    42ff:	48 8b 50 10          	mov    0x10(%rax),%rdx
    4303:	48 8b 45 b8          	mov    -0x48(%rbp),%rax
    4307:	48 89 10             	mov    %rdx,(%rax)
    430a:	48 8b 45 f0          	mov    -0x10(%rbp),%rax
    430e:	48 8b 40 10          	mov    0x10(%rax),%rax
    4312:	48 85 c0             	test   %rax,%rax
    4315:	74 26                	je     433d <map_remove+0x5f0>
    4317:	48 8b 45 f0          	mov    -0x10(%rbp),%rax
    431b:	48 8b 50 10          	mov    0x10(%rax),%rdx
    431f:	48 8b 45 b8          	mov    -0x48(%rbp),%rax
    4323:	48 8b 00             	mov    (%rax),%rax
    4326:	48 8b 40 20          	mov    0x20(%rax),%rax
    432a:	48 8b 40 20          	mov    0x20(%rax),%rax
    432e:	48 01 c2             	add    %rax,%rdx
    4331:	48 8b 45 f0          	mov    -0x10(%rbp),%rax
    4335:	48 8b 40 08          	mov    0x8(%rax),%rax
    4339:	48 89 42 08          	mov    %rax,0x8(%rdx)
    433d:	48 8b 45 f0          	mov    -0x10(%rbp),%rax
    4341:	8b 50 34             	mov    0x34(%rax),%edx
    4344:	48 8b 45 b8          	mov    -0x48(%rbp),%rax
    4348:	48 8b 00             	mov    (%rax),%rax
    434b:	48 8b 40 20          	mov    0x20(%rax),%rax
    434f:	8b 40 08             	mov    0x8(%rax),%eax
    4352:	83 e8 01             	sub    $0x1,%eax
    4355:	21 d0                	and    %edx,%eax
    4357:	89 45 dc             	mov    %eax,-0x24(%rbp)
    435a:	48 8b 45 b8          	mov    -0x48(%rbp),%rax
    435e:	48 8b 00             	mov    (%rax),%rax
    4361:	48 8b 40 20          	mov    0x20(%rax),%rax
    4365:	48 8b 00             	mov    (%rax),%rax
    4368:	8b 55 dc             	mov    -0x24(%rbp),%edx
    436b:	48 c1 e2 04          	shl    $0x4,%rdx
    436f:	48 01 d0             	add    %rdx,%rax
    4372:	48 89 45 f8          	mov    %rax,-0x8(%rbp)
    4376:	48 8b 45 f8          	mov    -0x8(%rbp),%rax
    437a:	8b 40 08             	mov    0x8(%rax),%eax
    437d:	8d 50 ff             	lea    -0x1(%rax),%edx
    4380:	48 8b 45 f8          	mov    -0x8(%rbp),%rax
    4384:	89 50 08             	mov    %edx,0x8(%rax)
    4387:	48 8b 45 f8          	mov    -0x8(%rbp),%rax
    438b:	48 8b 00             	mov    (%rax),%rax
    438e:	48 39 45 f0          	cmp    %rax,-0x10(%rbp)
    4392:	75 0f                	jne    43a3 <map_remove+0x656>
    4394:	48 8b 45 f0          	mov    -0x10(%rbp),%rax
    4398:	48 8b 50 20          	mov    0x20(%rax),%rdx
    439c:	48 8b 45 f8          	mov    -0x8(%rbp),%rax
    43a0:	48 89 10             	mov    %rdx,(%rax)
    43a3:	48 8b 45 f0          	mov    -0x10(%rbp),%rax
    43a7:	48 8b 40 18          	mov    0x18(%rax),%rax
    43ab:	48 85 c0             	test   %rax,%rax
    43ae:	74 14                	je     43c4 <map_remove+0x677>
    43b0:	48 8b 45 f0          	mov    -0x10(%rbp),%rax
    43b4:	48 8b 40 18          	mov    0x18(%rax),%rax
    43b8:	48 8b 55 f0          	mov    -0x10(%rbp),%rdx
    43bc:	48 8b 52 20          	mov    0x20(%rdx),%rdx
    43c0:	48 89 50 20          	mov    %rdx,0x20(%rax)
    43c4:	48 8b 45 f0          	mov    -0x10(%rbp),%rax
    43c8:	48 8b 40 20          	mov    0x20(%rax),%rax
    43cc:	48 85 c0             	test   %rax,%rax
    43cf:	74 14                	je     43e5 <map_remove+0x698>
    43d1:	48 8b 45 f0          	mov    -0x10(%rbp),%rax
    43d5:	48 8b 40 20          	mov    0x20(%rax),%rax
    43d9:	48 8b 55 f0          	mov    -0x10(%rbp),%rdx
    43dd:	48 8b 52 18          	mov    0x18(%rdx),%rdx
    43e1:	48 89 50 18          	mov    %rdx,0x18(%rax)
    43e5:	48 8b 45 b8          	mov    -0x48(%rbp),%rax
    43e9:	48 8b 00             	mov    (%rax),%rax
    43ec:	48 8b 40 20          	mov    0x20(%rax),%rax
    43f0:	8b 50 10             	mov    0x10(%rax),%edx
    43f3:	83 ea 01             	sub    $0x1,%edx
    43f6:	89 50 10             	mov    %edx,0x10(%rax)
    43f9:	48 8b 45 e0          	mov    -0x20(%rbp),%rax
    43fd:	48 8b 00             	mov    (%rax),%rax
    4400:	48 89 c7             	mov    %rax,%rdi
    4403:	e8 98 cd ff ff       	call   11a0 <free@plt>
    4408:	48 8b 45 e0          	mov    -0x20(%rbp),%rax
    440c:	48 8b 40 10          	mov    0x10(%rax),%rax
    4410:	48 89 c7             	mov    %rax,%rdi
    4413:	e8 88 cd ff ff       	call   11a0 <free@plt>
    4418:	48 8b 45 e0          	mov    -0x20(%rbp),%rax
    441c:	48 89 c7             	mov    %rax,%rdi
    441f:	e8 7c cd ff ff       	call   11a0 <free@plt>
    4424:	90                   	nop
    4425:	c9                   	leave
    4426:	c3                   	ret

Disassembly of section .fini:

0000000000004428 <_fini>:
    4428:	f3 0f 1e fa          	endbr64
    442c:	48 83 ec 08          	sub    $0x8,%rsp
    4430:	48 83 c4 08          	add    $0x8,%rsp
    4434:	c3                   	ret
